(dp1
cnumpy.core.multiarray
scalar
p2
(cnumpy
dtype
p3
(S'i8'
I0
I1
tRp4
(I3
S'<'
NNNI-1
I-1
I0
tbS'\xd0\x07\x00\x00\x00\x00\x00\x00'
tRp5
(dp6
S'MIN'
p7
(dp8
S'NO'
p9
(lp10
I34
aI16
ag7
asS'MIA'
p11
(lp12
I13
aI7
ag7
asS'CHI'
p13
(lp14
I30
aI27
ag7
asS'TB'
p15
(lp16
I30
aI23
ag7
asS'DET'
p17
(lp18
I24
aI17
ag7
asS'GB'
p19
(lp20
I28
aI33
ag19
asS'CAR'
p21
(lp22
I31
aI17
ag7
asS'ARI'
p23
(lp24
I31
aI14
ag7
asS'BUF'
p25
(lp26
I31
aI27
ag7
assS'MIA'
p27
(dp28
g15
(lp29
I13
aI16
ag15
asS'NE'
p30
(lp31
I10
aI3
ag27
asS'NYJ'
p32
(lp33
I3
aI20
ag32
asg19
(lp34
I28
aI20
ag27
asS'SEA'
p35
(lp36
I23
aI0
ag27
asS'IND'
p37
(lp38
I23
aI17
ag27
asS'BAL'
p39
(lp40
I19
aI6
ag27
asg25
(lp41
I22
aI13
ag27
assS'CAR'
p42
(dp43
g9
(lp44
I10
aI20
ag9
asS'DAL'
p45
(lp46
I13
aI16
ag45
asS'ATL'
p47
(lp48
I10
aI15
ag47
asS'STL'
p49
(lp50
I16
aI3
ag42
asg19
(lp51
I31
aI14
ag42
asg35
(lp52
I26
aI3
ag42
asS'SF'
p53
(lp54
I34
aI16
ag42
asS'SD'
p55
(lp56
I30
aI22
ag42
assS'ATL'
p57
(dp58
S'KC'
p59
(lp60
I29
aI13
ag57
asg9
(lp61
I19
aI21
ag9
asg49
(lp62
I20
aI41
ag49
asg21
(lp63
I13
aI12
ag57
asS'NYG'
p64
(lp65
I6
aI13
ag64
asg35
(lp66
I10
aI30
ag35
asg15
(lp67
I14
aI27
ag15
asg53
(lp68
I36
aI28
ag57
assS'DET'
p69
(dp70
S'MIN'
p71
(lp72
I24
aI31
ag71
asg11
(lp73
I8
aI23
ag11
asS'WAS'
p74
(lp75
I15
aI10
ag69
asg47
(lp76
I13
aI10
ag69
asg30
(lp77
I34
aI9
ag69
asg19
(lp78
I31
aI24
ag69
asg13
(lp79
I20
aI23
ag13
asg15
(lp80
I10
aI31
ag15
assS'CIN'
p81
(dp82
S'TEN'
p83
(lp84
I14
aI23
ag83
asg11
(lp85
I16
aI31
ag11
asS'CLE'
p86
(lp87
I7
aI24
ag86
asS'DEN'
p88
(lp89
I31
aI21
ag81
asg23
(lp90
I24
aI13
ag81
asg39
(lp91
I7
aI27
ag39
asS'PIT'
p92
(lp93
I28
aI48
ag92
asS'JAC'
p94
(lp95
I17
aI14
ag81
assS'NYJ'
p96
(dp97
g11
(lp98
I40
aI37
ag96
asg25
(lp99
I27
aI14
ag96
asg17
(lp100
I7
aI10
ag17
asg30
(lp101
I20
aI19
ag96
asg88
(lp102
I23
aI30
ag88
asg13
(lp103
I17
aI10
ag96
asg37
(lp104
I27
aI17
ag96
asg92
(lp105
I3
aI20
ag92
assS'DEN'
p106
(dp107
g59
(lp108
I22
aI23
ag59
asg86
(lp109
I44
aI10
ag106
asg47
(lp110
I42
aI14
ag106
asS'OAK'
p111
(lp112
I27
aI24
ag106
asg30
(lp113
I19
aI28
ag30
asg35
(lp114
I31
aI24
ag106
asg53
(lp115
I38
aI9
ag106
asg55
(lp116
I38
aI37
ag106
assS'BAL'
p117
(dp118
g83
(lp119
I6
aI14
ag83
asg45
(lp120
I27
aI0
ag117
asg86
(lp121
I44
aI7
ag117
asS'CIN'
p122
(lp123
I37
aI0
ag117
asg32
(lp124
I34
aI20
ag117
asg88
(lp125
I21
aI3
ag117
asg92
(lp126
I6
aI9
ag92
asg94
(lp127
I39
aI36
ag117
asg55
(lp128
I24
aI3
ag117
assS'NYG'
p129
(dp130
S'PHI'
p131
(lp132
I20
aI10
ag129
asg71
(lp133
I41
aI0
ag129
asg45
(lp134
I19
aI14
ag129
asg92
(lp135
I30
aI10
ag129
asg17
(lp136
I21
aI31
ag17
asg49
(lp137
I24
aI38
ag49
asg23
(lp138
I21
aI16
ag129
asg39
(lp139
I7
aI34
ag39
asg74
(lp140
I6
aI16
ag74
asg94
(lp141
I28
aI25
ag129
assS'OAK'
p142
(dp143
g59
(lp144
I49
aI31
ag142
asg88
(lp145
I24
aI33
ag88
asg11
(lp146
I27
aI0
ag142
asg86
(lp147
I36
aI10
ag142
asg47
(lp148
I41
aI14
ag142
asg32
(lp149
I31
aI7
ag142
asg35
(lp150
I31
aI3
ag142
asg21
(lp151
I52
aI9
ag142
asg39
(lp152
I3
aI16
ag39
asg55
(lp153
I9
aI6
ag142
assS'TEN'
p154
(dp155
g59
(lp156
I17
aI14
ag154
asg45
(lp157
I31
aI0
ag154
asg86
(lp158
I24
aI10
ag154
asg122
(lp159
I35
aI3
ag154
asg94
(lp160
I27
aI13
ag154
asg39
(lp161
I10
aI24
ag39
asg92
(lp162
I9
aI7
ag154
asg64
(lp163
I28
aI14
ag154
assS'NO'
p164
(dp165
g131
(lp166
I7
aI21
ag131
asg49
(lp167
I31
aI28
ag164
asg21
(lp168
I24
aI6
ag164
asg47
(lp169
I23
aI7
ag164
asg17
(lp170
I10
aI14
ag17
asg88
(lp171
I23
aI38
ag88
asg53
(lp172
I31
aI15
ag164
asg111
(lp173
I22
aI31
ag111
assS'DAL'
p174
(dp175
g131
(lp176
I14
aI41
ag131
asg71
(lp177
I15
aI27
ag71
asg64
(lp178
I13
aI17
ag64
asg122
(lp179
I23
aI6
ag174
asg94
(lp180
I17
aI23
ag94
asg23
(lp181
I48
aI7
ag174
asg74
(lp182
I32
aI13
ag174
asg53
(lp183
I24
aI41
ag53
assS'NE'
p184
(dp185
g59
(lp186
I30
aI24
ag184
asg71
(lp187
I13
aI21
ag71
asg11
(lp188
I24
aI27
ag11
asg15
(lp189
I16
aI21
ag15
asg122
(lp190
I16
aI13
ag184
asg32
(lp191
I17
aI34
ag32
asg37
(lp192
I24
aI16
ag184
asg25
(lp193
I13
aI16
ag25
assS'SEA'
p194
(dp195
g59
(lp196
I19
aI24
ag59
asg9
(lp197
I20
aI10
ag194
asg49
(lp198
I34
aI37
ag49
asg111
(lp199
I27
aI24
ag194
asg88
(lp200
I31
aI38
ag88
asg37
(lp201
I24
aI37
ag37
asg25
(lp202
I23
aI42
ag25
asg55
(lp203
I17
aI15
ag194
assS'CHI'
p204
(dp205
g71
(lp206
I16
aI28
ag71
asg9
(lp207
I10
aI31
ag9
asg17
(lp208
I14
aI21
ag17
asg30
(lp209
I24
aI17
ag204
asg19
(lp210
I6
aI28
ag19
asg37
(lp211
I27
aI24
ag204
asg15
(lp212
I13
aI10
ag204
asg64
(lp213
I7
aI14
ag64
assS'TB'
p214
(dp215
g71
(lp216
I41
aI13
ag214
asg45
(lp217
I27
aI7
ag214
asg13
(lp218
I41
aI0
ag214
asg17
(lp219
I14
aI28
ag17
asg32
(lp220
I17
aI21
ag32
asg49
(lp221
I38
aI35
ag214
asg19
(lp222
I20
aI15
ag214
asg25
(lp223
I31
aI17
ag214
assS'PIT'
p224
(dp225
g131
(lp226
I23
aI26
ag131
asg83
(lp227
I20
aI23
ag83
asg86
(lp228
I22
aI0
ag224
asg111
(lp229
I21
aI20
ag224
asg122
(lp230
I15
aI0
ag224
asg39
(lp231
I0
aI16
ag39
asg74
(lp232
I24
aI3
ag224
asg94
(lp233
I24
aI34
ag94
assS'STL'
p234
(dp235
g9
(lp236
I24
aI31
ag9
asg21
(lp237
I24
aI27
ag21
asg47
(lp238
I45
aI29
ag234
asg71
(lp239
I40
aI29
ag234
asg88
(lp240
I41
aI36
ag234
asg74
(lp241
I20
aI33
ag74
asg53
(lp242
I41
aI24
ag234
asg55
(lp243
I57
aI31
ag234
assS'CLE'
p244
(dp245
g131
(lp246
I24
aI35
ag131
asg83
(lp247
I0
aI24
ag83
asg122
(lp248
I3
aI12
ag122
asg30
(lp249
I19
aI11
ag244
asg64
(lp250
I3
aI24
ag64
asg39
(lp251
I0
aI12
ag39
asg92
(lp252
I23
aI20
ag244
asg94
(lp253
I7
aI27
ag94
assS'GB'
p254
(dp255
g131
(lp256
I6
aI3
ag254
asg71
(lp257
I26
aI20
ag254
asg13
(lp258
I24
aI27
ag13
asg17
(lp259
I26
aI13
ag254
asg32
(lp260
I16
aI20
ag32
asg37
(lp261
I26
aI24
ag254
asg15
(lp262
I17
aI14
ag254
asg53
(lp263
I31
aI28
ag254
assS'WAS'
p264
(dp265
g131
(lp266
I20
aI23
ag131
asg83
(lp267
I21
aI27
ag83
asg45
(lp268
I21
aI27
ag45
asg21
(lp269
I20
aI17
ag264
asg23
(lp270
I20
aI3
ag264
asg39
(lp271
I10
aI3
ag264
asg15
(lp272
I20
aI17
ag264
asg64
(lp273
I7
aI9
ag64
assS'JAC'
p274
(dp275
g83
(lp276
I16
aI13
ag274
asg92
(lp277
I13
aI24
ag92
asg122
(lp278
I13
aI0
ag274
asg35
(lp279
I21
aI28
ag35
asg86
(lp280
I48
aI0
ag274
asg23
(lp281
I44
aI10
ag274
asg39
(lp282
I10
aI15
ag39
asg74
(lp283
I16
aI35
ag74
assS'KC'
p284
(dp285
g88
(lp286
I20
aI7
ag284
asg49
(lp287
I54
aI34
ag284
asg21
(lp288
I15
aI14
ag284
asg111
(lp289
I17
aI20
ag111
asg35
(lp290
I24
aI17
ag284
asg37
(lp291
I14
aI27
ag37
asg25
(lp292
I17
aI21
ag25
asg55
(lp293
I42
aI10
ag284
assS'PHI'
p294
(dp295
g83
(lp296
I13
aI15
ag83
asg45
(lp297
I16
aI13
ag294
asg13
(lp298
I13
aI9
ag294
asg47
(lp299
I38
aI10
ag294
asg15
(lp300
I21
aI3
ag294
asg122
(lp301
I16
aI7
ag294
asg23
(lp302
I34
aI9
ag294
asg74
(lp303
I14
aI17
ag74
asg64
(lp304
I18
aI33
ag64
assS'BUF'
p305
(dp306
g83
(lp307
I16
aI13
ag305
asg11
(lp308
I6
aI33
ag11
asg13
(lp309
I20
aI3
ag305
asg30
(lp310
I10
aI13
ag30
asg32
(lp311
I23
aI20
ag305
asg19
(lp312
I27
aI18
ag305
asg37
(lp313
I16
aI18
ag37
asg55
(lp314
I27
aI24
ag305
assS'IND'
p315
(dp316
g71
(lp317
I31
aI10
ag315
asg11
(lp318
I14
aI17
ag11
asg111
(lp319
I31
aI38
ag111
asg17
(lp320
I30
aI18
ag315
asg30
(lp321
I30
aI23
ag315
asg32
(lp322
I23
aI15
ag315
asg25
(lp323
I44
aI20
ag315
asg94
(lp324
I43
aI14
ag315
assS'ARI'
p325
(dp326
g131
(lp327
I14
aI33
ag131
asg9
(lp328
I10
aI21
ag9
asg45
(lp329
I32
aI31
ag325
asg86
(lp330
I29
aI21
ag325
asg19
(lp331
I3
aI29
ag19
asg39
(lp332
I7
aI13
ag39
asg74
(lp333
I16
aI15
ag325
asg64
(lp334
I7
aI31
ag64
assS'SF'
p335
(dp336
g59
(lp337
I21
aI7
ag335
asg9
(lp338
I27
aI31
ag9
asg49
(lp339
I24
aI34
ag49
asg21
(lp340
I22
aI38
ag21
asg47
(lp341
I16
aI6
ag335
asg111
(lp342
I28
aI34
ag111
asg13
(lp343
I17
aI0
ag335
asg23
(lp344
I27
aI20
ag335
assS'SD'
p345
(dp346
g59
(lp347
I17
aI16
ag345
asg35
(lp348
I12
aI20
ag35
asg9
(lp349
I27
aI28
ag9
asg11
(lp350
I7
aI17
ag11
asg111
(lp351
I13
aI15
ag111
asg88
(lp352
I7
aI21
ag88
asg92
(lp353
I21
aI34
ag92
asg53
(lp354
I17
aI45
ag53
asssg2
(g4
S'\xd1\x07\x00\x00\x00\x00\x00\x00'
tRp355
(dp356
g7
(dp357
g83
(lp358
I42
aI24
ag7
asg21
(lp359
I13
aI24
ag21
asg17
(lp360
I31
aI26
ag7
asg94
(lp361
I3
aI33
ag94
asg19
(lp362
I35
aI13
ag7
asg13
(lp363
I6
aI13
ag13
asg15
(lp364
I20
aI16
ag7
asg64
(lp365
I28
aI16
ag7
assg27
(dp366
g21
(lp367
I23
aI6
ag27
asg47
(lp368
I21
aI14
ag27
asg111
(lp369
I18
aI15
ag27
asg30
(lp370
I30
aI10
ag27
asg32
(lp371
I0
aI24
ag32
asg88
(lp372
I21
aI10
ag27
asg37
(lp373
I41
aI6
ag27
asg39
(lp374
I3
aI20
ag39
asg25
(lp375
I34
aI7
ag27
assg42
(dp376
g9
(lp377
I25
aI27
ag9
asg49
(lp378
I32
aI38
ag49
asg47
(lp379
I7
aI10
ag47
asg30
(lp380
I6
aI38
ag30
asg32
(lp381
I12
aI13
ag32
asg19
(lp382
I7
aI28
ag19
asg23
(lp383
I7
aI30
ag23
asg53
(lp384
I22
aI25
ag53
assg57
(dp385
g9
(lp386
I10
aI28
ag9
asg45
(lp387
I20
aI13
ag57
asg21
(lp388
I24
aI16
ag57
asg30
(lp389
I10
aI24
ag30
asg49
(lp390
I6
aI35
ag49
asg13
(lp391
I3
aI31
ag13
asg25
(lp392
I33
aI30
ag57
asg53
(lp393
I31
aI37
ag53
assg69
(dp394
g83
(lp395
I24
aI27
ag83
asg71
(lp396
I27
aI24
ag69
asg49
(lp397
I0
aI35
ag49
asg13
(lp398
I0
aI24
ag13
asg122
(lp399
I27
aI31
ag122
asg45
(lp400
I15
aI10
ag69
asg19
(lp401
I27
aI29
ag19
asg15
(lp402
I17
aI20
ag15
assg81
(dp403
g83
(lp404
I7
aI20
ag83
asg86
(lp405
I24
aI14
ag81
asg30
(lp406
I23
aI17
ag81
asg13
(lp407
I0
aI24
ag13
asg39
(lp408
I21
aI10
ag81
asg15
(lp409
I13
aI16
ag15
asg94
(lp410
I10
aI14
ag94
asg92
(lp411
I26
aI23
ag81
assg96
(dp412
g59
(lp413
I27
aI7
ag96
asg11
(lp414
I21
aI17
ag96
asg30
(lp415
I16
aI17
ag30
asg122
(lp416
I15
aI14
ag96
asg49
(lp417
I14
aI34
ag49
asg37
(lp418
I24
aI45
ag37
asg25
(lp419
I9
aI14
ag25
asg53
(lp420
I17
aI19
ag53
assg106
(dp421
g59
(lp422
I20
aI6
ag106
asg111
(lp423
I23
aI17
ag106
asg30
(lp424
I31
aI20
ag106
asg35
(lp425
I20
aI7
ag106
asg39
(lp426
I13
aI20
ag39
asg74
(lp427
I10
aI17
ag74
asg64
(lp428
I31
aI20
ag106
asg55
(lp429
I26
aI16
ag106
assg117
(dp430
g83
(lp431
I26
aI7
ag117
asg71
(lp432
I19
aI3
ag117
asg13
(lp433
I17
aI6
ag117
asg122
(lp434
I16
aI0
ag117
asg86
(lp435
I17
aI27
ag86
asg37
(lp436
I39
aI27
ag117
asg92
(lp437
I21
aI26
ag92
asg94
(lp438
I18
aI17
ag117
assg129
(dp439
g131
(lp440
I9
aI10
ag131
asg9
(lp441
I21
aI13
ag129
asg45
(lp442
I27
aI24
ag129
asg111
(lp443
I10
aI28
ag111
asg19
(lp444
I25
aI34
ag19
asg35
(lp445
I27
aI24
ag129
asg23
(lp446
I17
aI13
ag129
asg74
(lp447
I23
aI9
ag129
assg154
(dp448
g11
(lp449
I23
aI31
ag11
asg15
(lp450
I31
aI28
ag154
asg122
(lp451
I21
aI23
ag122
asg19
(lp452
I24
aI20
ag154
asg86
(lp453
I38
aI41
ag86
asg39
(lp454
I10
aI16
ag39
asg92
(lp455
I24
aI34
ag92
asg94
(lp456
I28
aI24
ag154
assg164
(dp457
g71
(lp458
I28
aI15
ag164
asg49
(lp459
I21
aI34
ag49
asg21
(lp460
I27
aI23
ag164
asg47
(lp461
I13
aI20
ag47
asg32
(lp462
I9
aI16
ag32
asg37
(lp463
I34
aI20
ag164
asg74
(lp464
I10
aI40
ag74
asg53
(lp465
I0
aI38
ag53
assg174
(dp466
g131
(lp467
I3
aI36
ag131
asg15
(lp468
I6
aI10
ag15
asg53
(lp469
I27
aI21
ag174
asg88
(lp470
I24
aI26
ag88
asg23
(lp471
I17
aI3
ag174
asg74
(lp472
I9
aI7
ag174
asg64
(lp473
I20
aI13
ag174
asg55
(lp474
I21
aI32
ag55
assg184
(dp475
g9
(lp476
I34
aI17
ag184
asg49
(lp477
I20
aI17
ag184
asg86
(lp478
I27
aI16
ag184
asg111
(lp479
I16
aI13
ag184
asg32
(lp480
I3
aI10
ag32
asg11
(lp481
I20
aI13
ag184
asg37
(lp482
I44
aI13
ag184
asg25
(lp483
I21
aI11
ag184
asg55
(lp484
I29
aI26
ag184
assg194
(dp485
g59
(lp486
I21
aI18
ag194
asg131
(lp487
I3
aI27
ag131
asg11
(lp488
I20
aI24
ag11
asg111
(lp489
I34
aI27
ag194
asg45
(lp490
I29
aI3
ag194
asg88
(lp491
I34
aI21
ag194
asg94
(lp492
I24
aI15
ag194
asg55
(lp493
I13
aI10
ag194
assg244
(dp494
g83
(lp495
I15
aI31
ag83
asg17
(lp496
I24
aI14
ag244
asg122
(lp497
I18
aI0
ag244
asg35
(lp498
I6
aI9
ag35
asg39
(lp499
I24
aI14
ag244
asg92
(lp500
I12
aI15
ag92
asg94
(lp501
I10
aI15
ag94
asg55
(lp502
I20
aI16
ag244
assg214
(dp503
g131
(lp504
I13
aI17
ag131
asg9
(lp505
I48
aI21
ag214
asg13
(lp506
I24
aI27
ag13
asg71
(lp507
I41
aI14
ag214
asg17
(lp508
I15
aI12
ag214
asg19
(lp509
I14
aI10
ag214
asg39
(lp510
I22
aI10
ag214
asg92
(lp511
I10
aI17
ag92
assg224
(dp512
g83
(lp513
I34
aI7
ag224
asg71
(lp514
I21
aI16
ag224
asg86
(lp515
I28
aI7
ag224
asg17
(lp516
I47
aI14
ag224
asg122
(lp517
I16
aI7
ag224
asg30
(lp518
I17
aI24
ag30
asg32
(lp519
I18
aI7
ag224
asg39
(lp520
I27
aI10
ag224
asg94
(lp521
I20
aI7
ag224
assg234
(dp522
g131
(lp523
I29
aI24
ag234
asg9
(lp524
I31
aI34
ag9
asg11
(lp525
I42
aI10
ag234
asg21
(lp526
I48
aI14
ag234
asg47
(lp527
I31
aI13
ag234
asg53
(lp528
I27
aI14
ag234
asg19
(lp529
I45
aI17
ag234
asg37
(lp530
I42
aI17
ag234
asg15
(lp531
I17
aI24
ag15
asg64
(lp532
I15
aI14
ag234
assg142
(dp533
g59
(lp534
I28
aI26
ag142
asg35
(lp535
I38
aI14
ag142
asg83
(lp536
I10
aI13
ag83
asg45
(lp537
I28
aI21
ag142
asg32
(lp538
I38
aI24
ag142
asg88
(lp539
I38
aI28
ag142
asg23
(lp540
I31
aI34
ag23
asg55
(lp541
I34
aI24
ag142
assg254
(dp542
g71
(lp543
I24
aI13
ag254
asg15
(lp544
I21
aI20
ag254
asg47
(lp545
I20
aI23
ag47
asg17
(lp546
I28
aI6
ag254
asg86
(lp547
I30
aI7
ag254
asg13
(lp548
I17
aI7
ag254
asg39
(lp549
I31
aI23
ag254
asg74
(lp550
I37
aI0
ag254
asg53
(lp551
I25
aI15
ag254
assg204
(dp552
g131
(lp553
I19
aI33
ag131
asg71
(lp554
I17
aI10
ag204
asg86
(lp555
I27
aI21
ag204
asg17
(lp556
I13
aI10
ag204
asg94
(lp557
I33
aI13
ag204
asg19
(lp558
I12
aI20
ag19
asg23
(lp559
I20
aI13
ag204
asg15
(lp560
I27
aI3
ag204
asg53
(lp561
I37
aI31
ag204
assg264
(dp562
g59
(lp563
I13
aI45
ag59
asg131
(lp564
I6
aI20
ag131
asg45
(lp565
I14
aI20
ag45
asg21
(lp566
I17
aI14
ag264
asg35
(lp567
I27
aI14
ag264
asg13
(lp568
I15
aI20
ag13
asg23
(lp569
I20
aI17
ag264
asg64
(lp570
I35
aI21
ag264
assg274
(dp571
g59
(lp572
I26
aI30
ag59
asg83
(lp573
I13
aI6
ag274
asg86
(lp574
I14
aI23
ag86
asg122
(lp575
I30
aI13
ag274
asg19
(lp576
I21
aI28
ag19
asg39
(lp577
I21
aI24
ag39
asg25
(lp578
I10
aI13
ag25
asg92
(lp579
I21
aI3
ag274
assg284
(dp580
g131
(lp581
I10
aI23
ag131
asg88
(lp582
I26
aI23
ag284
asg111
(lp583
I24
aI27
ag111
asg35
(lp584
I19
aI7
ag284
asg37
(lp585
I28
aI35
ag37
asg92
(lp586
I17
aI20
ag92
asg64
(lp587
I3
aI13
ag64
asg55
(lp588
I20
aI17
ag284
assg294
(dp589
g71
(lp590
I48
aI17
ag294
asg49
(lp591
I17
aI20
ag49
asg15
(lp592
I31
aI9
ag294
asg111
(lp593
I10
aI20
ag111
asg45
(lp594
I40
aI18
ag294
asg23
(lp595
I20
aI21
ag23
asg74
(lp596
I3
aI13
ag74
asg64
(lp597
I24
aI21
ag294
asg55
(lp598
I24
aI14
ag294
assg305
(dp599
g9
(lp600
I6
aI24
ag9
asg11
(lp601
I27
aI34
ag11
asg21
(lp602
I25
aI24
ag305
asg30
(lp603
I9
aI12
ag30
asg32
(lp604
I36
aI42
ag32
asg35
(lp605
I20
aI23
ag35
asg37
(lp606
I14
aI30
ag37
asg92
(lp607
I3
aI20
ag92
assg315
(dp608
g11
(lp609
I24
aI27
ag11
asg47
(lp610
I41
aI27
ag315
asg111
(lp611
I18
aI23
ag111
asg30
(lp612
I17
aI38
ag30
asg32
(lp613
I28
aI29
ag32
asg88
(lp614
I29
aI10
ag315
asg25
(lp615
I42
aI26
ag315
asg53
(lp616
I21
aI40
ag53
assg325
(dp617
g59
(lp618
I24
aI16
ag325
asg131
(lp619
I7
aI21
ag131
asg45
(lp620
I17
aI10
ag325
asg47
(lp621
I14
aI34
ag47
asg17
(lp622
I45
aI38
ag325
asg88
(lp623
I17
aI38
ag88
asg74
(lp624
I10
aI20
ag74
asg64
(lp625
I10
aI17
ag64
assg335
(dp626
g131
(lp627
I13
aI3
ag335
asg9
(lp628
I28
aI27
ag335
asg49
(lp629
I26
aI30
ag49
asg21
(lp630
I24
aI14
ag335
asg47
(lp631
I16
aI13
ag335
asg17
(lp632
I21
aI13
ag335
asg11
(lp633
I21
aI0
ag335
asg25
(lp634
I35
aI0
ag335
assg345
(dp635
g59
(lp636
I20
aI25
ag59
asg35
(lp637
I22
aI25
ag35
asg74
(lp638
I30
aI3
ag345
asg111
(lp639
I6
aI13
ag111
asg122
(lp640
I28
aI14
ag345
asg88
(lp641
I27
aI10
ag345
asg23
(lp642
I17
aI20
ag23
asg25
(lp643
I27
aI24
ag345
asssg2
(g4
S'\xd2\x07\x00\x00\x00\x00\x00\x00'
tRp644
(dp645
g7
(dp646
g11
(lp647
I20
aI17
ag7
asg21
(lp648
I14
aI21
ag21
asg47
(lp649
I24
aI30
ag47
asg17
(lp650
I31
aI24
ag7
asg19
(lp651
I31
aI21
ag7
asg13
(lp652
I25
aI7
ag7
asg25
(lp653
I39
aI45
ag25
asg64
(lp654
I20
aI27
ag64
assg27
(dp655
g13
(lp656
I27
aI9
ag27
asg17
(lp657
I49
aI21
ag27
asg30
(lp658
I26
aI13
ag27
asg32
(lp659
I30
aI3
ag27
asg39
(lp660
I26
aI7
ag27
asg25
(lp661
I10
aI23
ag25
asg111
(lp662
I23
aI17
ag27
asg55
(lp663
I30
aI3
ag27
assg42
(dp664
g9
(lp665
I24
aI34
ag9
asg13
(lp666
I24
aI14
ag42
asg47
(lp667
I0
aI41
ag47
asg17
(lp668
I31
aI7
ag42
asg122
(lp669
I52
aI31
ag42
asg23
(lp670
I13
aI16
ag23
asg39
(lp671
I10
aI7
ag42
asg15
(lp672
I9
aI12
ag15
assg57
(dp673
g9
(lp674
I24
aI17
ag57
asg13
(lp675
I13
aI14
ag13
asg17
(lp676
I36
aI15
ag57
asg122
(lp677
I30
aI3
ag57
asg35
(lp678
I24
aI30
ag35
asg21
(lp679
I30
aI0
ag57
asg39
(lp680
I20
aI17
ag57
asg15
(lp681
I6
aI20
ag15
assg69
(dp682
g9
(lp683
I26
aI21
ag69
asg45
(lp684
I9
aI7
ag69
asg13
(lp685
I23
aI20
ag69
asg71
(lp686
I36
aI38
ag71
asg30
(lp687
I12
aI20
ag30
asg32
(lp688
I14
aI31
ag32
asg19
(lp689
I31
aI37
ag19
asg15
(lp690
I20
aI23
ag15
assg81
(dp691
g83
(lp692
I24
aI30
ag83
asg9
(lp693
I20
aI13
ag81
asg86
(lp694
I20
aI27
ag86
asg15
(lp695
I7
aI35
ag15
asg39
(lp696
I23
aI27
ag39
asg92
(lp697
I7
aI34
ag92
asg94
(lp698
I15
aI29
ag94
asg55
(lp699
I6
aI34
ag55
assg96
(dp700
g59
(lp701
I25
aI29
ag59
asg71
(lp702
I20
aI7
ag96
asg11
(lp703
I13
aI10
ag96
asg86
(lp704
I21
aI24
ag86
asg30
(lp705
I7
aI44
ag30
asg19
(lp706
I42
aI17
ag96
asg88
(lp707
I19
aI13
ag96
asg37
(lp708
I41
aI0
ag96
asg25
(lp709
I31
aI13
ag96
assg106
(dp710
g59
(lp711
I31
aI24
ag106
asg49
(lp712
I23
aI16
ag106
asg111
(lp713
I10
aI34
ag111
asg11
(lp714
I22
aI24
ag11
asg37
(lp715
I20
aI23
ag37
asg23
(lp716
I37
aI7
ag106
asg25
(lp717
I28
aI23
ag106
asg55
(lp718
I26
aI9
ag106
assg117
(dp719
g83
(lp720
I13
aI12
ag117
asg9
(lp721
I25
aI37
ag9
asg15
(lp722
I0
aI25
ag15
asg122
(lp723
I38
aI27
ag117
asg88
(lp724
I34
aI23
ag117
asg86
(lp725
I13
aI14
ag86
asg92
(lp726
I18
aI31
ag92
asg94
(lp727
I17
aI10
ag117
assg129
(dp728
g131
(lp729
I10
aI7
ag129
asg83
(lp730
I29
aI32
ag83
asg45
(lp731
I37
aI7
ag129
asg47
(lp732
I10
aI17
ag47
asg94
(lp733
I24
aI17
ag129
asg35
(lp734
I9
aI6
ag129
asg74
(lp735
I19
aI17
ag129
asg53
(lp736
I13
aI16
ag53
assg154
(dp737
g131
(lp738
I27
aI24
ag154
asg86
(lp739
I28
aI31
ag86
asg30
(lp740
I24
aI7
ag154
asS'HOU'
p741
(lp742
I17
aI10
ag154
asg37
(lp743
I27
aI17
ag154
asg74
(lp744
I14
aI31
ag74
asg94
(lp745
I23
aI14
ag154
asg92
(lp746
I34
aI31
ag154
assg164
(dp747
g71
(lp748
I31
aI32
ag71
asg86
(lp749
I15
aI24
ag86
asg47
(lp750
I35
aI37
ag47
asg19
(lp751
I35
aI20
ag164
asg21
(lp752
I6
aI10
ag21
asg15
(lp753
I23
aI20
ag164
asg53
(lp754
I35
aI27
ag164
asg92
(lp755
I32
aI29
ag164
assg174
(dp756
g131
(lp757
I3
aI27
ag131
asg83
(lp758
I21
aI13
ag174
asg21
(lp759
I14
aI13
ag174
asg94
(lp760
I21
aI19
ag174
asg35
(lp761
I14
aI17
ag35
asg53
(lp762
I27
aI31
ag53
asg74
(lp763
I27
aI20
ag174
asg64
(lp764
I17
aI21
ag64
assg184
(dp765
g59
(lp766
I41
aI38
ag184
asg71
(lp767
I24
aI17
ag184
asg11
(lp768
I27
aI24
ag184
asg92
(lp769
I30
aI14
ag184
asg32
(lp770
I17
aI30
ag32
asg19
(lp771
I10
aI28
ag19
asg88
(lp772
I16
aI24
ag88
asg25
(lp773
I27
aI17
ag184
assg305
(dp774
g11
(lp775
I38
aI21
ag305
asg13
(lp776
I33
aI27
ag305
asg17
(lp777
I24
aI17
ag305
asg30
(lp778
I7
aI38
ag30
asg122
(lp779
I27
aI9
ag305
asg32
(lp780
I31
aI37
ag32
asg111
(lp781
I31
aI49
ag111
asg55
(lp782
I20
aI13
ag305
assg194
(dp783
g59
(lp784
I39
aI32
ag194
asg131
(lp785
I20
aI27
ag131
asg71
(lp786
I48
aI23
ag194
asg49
(lp787
I30
aI10
ag194
asg88
(lp788
I9
aI31
ag88
asg23
(lp789
I13
aI24
ag23
asg74
(lp790
I3
aI14
ag74
asg53
(lp791
I21
aI28
ag53
assg244
(dp792
g59
(lp793
I39
aI40
ag59
asg21
(lp794
I6
aI13
ag21
asg47
(lp795
I24
aI16
ag244
asg122
(lp796
I20
aI7
ag244
asg741
(lp797
I34
aI17
ag244
asg37
(lp798
I23
aI28
ag37
asg39
(lp799
I21
aI26
ag39
asg92
(lp800
I20
aI23
ag92
assg214
(dp801
g71
(lp802
I38
aI24
ag214
asg49
(lp803
I26
aI14
ag214
asg86
(lp804
I17
aI3
ag214
asg47
(lp805
I34
aI10
ag214
asg9
(lp806
I20
aI26
ag9
asg111
(lp807
I48
aI21
ag214
asg19
(lp808
I21
aI7
ag214
asg21
(lp809
I23
aI10
ag214
asg92
(lp810
I7
aI17
ag92
asg53
(lp811
I31
aI6
ag214
assg234
(dp812
g45
(lp813
I10
aI13
ag45
asg13
(lp814
I21
aI16
ag234
asg111
(lp815
I28
aI13
ag234
asg53
(lp816
I31
aI20
ag234
asg35
(lp817
I37
aI20
ag234
asg23
(lp818
I30
aI28
ag234
asg64
(lp819
I21
aI26
ag64
asg55
(lp820
I28
aI24
ag234
assg142
(dp821
g59
(lp822
I24
aI0
ag142
asg88
(lp823
I28
aI16
ag142
asg83
(lp824
I41
aI24
ag142
asg30
(lp825
I27
aI20
ag142
asg32
(lp826
I30
aI10
ag142
asg35
(lp827
I31
aI17
ag142
asg53
(lp828
I20
aI23
ag53
asg55
(lp829
I21
aI27
ag55
assS'HOU'
p830
(dp831
g83
(lp832
I3
aI13
ag83
asg45
(lp833
I19
aI10
ag830
asg122
(lp834
I3
aI38
ag122
asg94
(lp835
I21
aI24
ag94
asg37
(lp836
I3
aI23
ag37
asg39
(lp837
I19
aI23
ag39
asg25
(lp838
I24
aI31
ag25
asg64
(lp839
I16
aI14
ag830
assg254
(dp840
g71
(lp841
I26
aI22
ag254
asg11
(lp842
I24
aI10
ag254
asg21
(lp843
I17
aI14
ag254
asg47
(lp844
I7
aI27
ag47
asg17
(lp845
I40
aI14
ag254
asg25
(lp846
I10
aI0
ag254
asg13
(lp847
I30
aI20
ag254
asg74
(lp848
I30
aI9
ag254
assg204
(dp849
g131
(lp850
I13
aI19
ag131
asg9
(lp851
I23
aI29
ag9
asg71
(lp852
I27
aI23
ag204
asg17
(lp853
I20
aI17
ag204
asg30
(lp854
I30
aI33
ag30
asg32
(lp855
I20
aI13
ag204
asg19
(lp856
I21
aI34
ag19
asg15
(lp857
I0
aI15
ag15
assg264
(dp858
g131
(lp859
I7
aI37
ag131
asg9
(lp860
I27
aI43
ag9
asg49
(lp861
I20
aI17
ag264
asg45
(lp862
I20
aI14
ag264
asg741
(lp863
I26
aI10
ag264
asg37
(lp864
I26
aI21
ag264
asg23
(lp865
I31
aI23
ag264
asg64
(lp866
I21
aI27
ag64
assg274
(dp867
g131
(lp868
I28
aI25
ag274
asg83
(lp869
I10
aI28
ag83
asg92
(lp870
I23
aI25
ag92
asg32
(lp871
I28
aI3
ag274
asg741
(lp872
I19
aI21
ag741
asg86
(lp873
I20
aI21
ag86
asg37
(lp874
I25
aI28
ag37
asg74
(lp875
I26
aI7
ag274
assg284
(dp876
g11
(lp877
I48
aI30
ag284
asg111
(lp878
I20
aI10
ag284
asg49
(lp879
I49
aI10
ag284
asg88
(lp880
I34
aI37
ag88
asg23
(lp881
I49
aI0
ag284
asg25
(lp882
I17
aI16
ag284
asg94
(lp883
I16
aI23
ag94
asg55
(lp884
I24
aI22
ag284
assg294
(dp885
g45
(lp886
I44
aI13
ag294
asg74
(lp887
I34
aI21
ag294
asg47
(lp888
I20
aI6
ag294
asg49
(lp889
I10
aI3
ag294
asg741
(lp890
I35
aI17
ag294
asg37
(lp891
I13
aI35
ag37
asg23
(lp892
I38
aI14
ag294
asg15
(lp893
I10
aI27
ag15
asg64
(lp894
I17
aI3
ag294
assg224
(dp895
g86
(lp896
I36
aI33
ag224
asg47
(lp897
I34
aI34
ag47
asg111
(lp898
I17
aI30
ag111
asg122
(lp899
I29
aI21
ag224
asg741
(lp900
I6
aI24
ag741
asg21
(lp901
I30
aI14
ag224
asg37
(lp902
I28
aI10
ag224
asg39
(lp903
I34
aI31
ag224
assg315
(dp904
g83
(lp905
I15
aI23
ag83
asg11
(lp906
I13
aI21
ag11
asg122
(lp907
I28
aI21
ag315
asg94
(lp908
I20
aI13
ag315
asg45
(lp909
I20
aI3
ag315
asg741
(lp910
I19
aI3
ag315
asg39
(lp911
I22
aI20
ag315
asg64
(lp912
I27
aI44
ag64
assg325
(dp913
g45
(lp914
I9
aI6
ag325
asg17
(lp915
I23
aI20
ag325
asg111
(lp916
I20
aI41
ag111
asg53
(lp917
I14
aI17
ag53
asg49
(lp918
I14
aI27
ag49
asg35
(lp919
I6
aI27
ag35
asg64
(lp920
I21
aI7
ag325
asg55
(lp921
I15
aI23
ag55
assg335
(dp922
g59
(lp923
I17
aI13
ag335
asg131
(lp924
I17
aI38
ag131
asg35
(lp925
I31
aI24
ag335
asg49
(lp926
I37
aI13
ag335
asg19
(lp927
I14
aI20
ag19
asg88
(lp928
I14
aI24
ag88
asg23
(lp929
I38
aI28
ag335
asg74
(lp930
I20
aI10
ag335
asg64
(lp931
I39
aI38
ag335
assg345
(dp932
g59
(lp933
I35
aI34
ag345
asg35
(lp934
I28
aI31
ag35
asg111
(lp935
I7
aI27
ag111
asg30
(lp936
I21
aI14
ag345
asg32
(lp937
I13
aI44
ag32
asg741
(lp938
I24
aI3
ag345
asg88
(lp939
I30
aI27
ag345
asg53
(lp940
I20
aI17
ag345
asssg2
(g4
S'\xd3\x07\x00\x00\x00\x00\x00\x00'
tRp941
(dp942
g7
(dp943
g59
(lp944
I45
aI20
ag7
asg35
(lp945
I34
aI7
ag7
asg13
(lp946
I24
aI13
ag7
asg17
(lp947
I24
aI14
ag7
asg64
(lp948
I17
aI29
ag64
asg19
(lp949
I27
aI30
ag19
asg88
(lp950
I28
aI20
ag7
asg53
(lp951
I35
aI7
ag7
assg27
(dp952
g131
(lp953
I27
aI34
ag131
asg25
(lp954
I17
aI7
ag27
asg30
(lp955
I13
aI19
ag30
asg32
(lp956
I23
aI21
ag27
asg741
(lp957
I20
aI21
ag741
asg37
(lp958
I17
aI23
ag37
asg39
(lp959
I9
aI6
ag27
asg74
(lp960
I24
aI23
ag27
assg42
(dp961
g131
(lp962
I16
aI25
ag131
asg83
(lp963
I17
aI37
ag83
asg9
(lp964
I19
aI13
ag42
asg45
(lp965
I29
aI10
ag42
asg15
(lp966
I27
aI24
ag42
asg47
(lp967
I23
aI3
ag42
asg17
(lp968
I20
aI14
ag42
asg74
(lp969
I20
aI17
ag42
asg94
(lp970
I24
aI23
ag42
assg57
(dp971
g131
(lp972
I16
aI23
ag131
asg83
(lp973
I31
aI38
ag83
asg9
(lp974
I17
aI45
ag9
asg74
(lp975
I31
aI33
ag74
asg71
(lp976
I26
aI39
ag71
asg21
(lp977
I20
aI14
ag57
asg15
(lp978
I10
aI31
ag15
asg94
(lp979
I21
aI14
ag57
assg69
(dp980
g71
(lp981
I13
aI23
ag71
asg45
(lp982
I7
aI38
ag45
asg13
(lp983
I12
aI10
ag69
asg111
(lp984
I23
aI13
ag69
asg49
(lp985
I30
aI20
ag69
asg19
(lp986
I22
aI14
ag69
asg23
(lp987
I42
aI24
ag69
asg55
(lp988
I7
aI14
ag55
assg81
(dp989
g59
(lp990
I24
aI19
ag81
asg88
(lp991
I10
aI30
ag88
asg86
(lp992
I14
aI22
ag86
asg741
(lp993
I34
aI27
ag81
asg35
(lp994
I27
aI24
ag81
asg39
(lp995
I34
aI26
ag81
asg92
(lp996
I10
aI17
ag92
asg53
(lp997
I41
aI38
ag81
assg96
(dp998
g83
(lp999
I24
aI17
ag96
asg11
(lp1000
I10
aI21
ag11
asg92
(lp1001
I6
aI0
ag96
asg30
(lp1002
I16
aI21
ag30
asg94
(lp1003
I13
aI10
ag96
asg45
(lp1004
I6
aI17
ag45
asg25
(lp1005
I30
aI3
ag96
asg64
(lp1006
I28
aI31
ag64
assg106
(dp1007
g59
(lp1008
I45
aI27
ag106
asg111
(lp1009
I31
aI10
ag106
asg17
(lp1010
I20
aI16
ag106
asg30
(lp1011
I26
aI30
ag30
asg86
(lp1012
I23
aI20
ag106
asg13
(lp1013
I10
aI19
ag13
asg92
(lp1014
I17
aI14
ag106
asg55
(lp1015
I37
aI8
ag106
assg117
(dp1016
g59
(lp1017
I10
aI17
ag59
asg88
(lp1018
I26
aI6
ag117
asg83
(lp1019
I17
aI20
ag83
asg86
(lp1020
I33
aI13
ag117
asg122
(lp1021
I31
aI13
ag117
asg53
(lp1022
I44
aI6
ag117
asg35
(lp1023
I44
aI41
ag117
asg92
(lp1024
I13
aI10
ag117
asg94
(lp1025
I24
aI17
ag117
assg129
(dp1026
g131
(lp1027
I10
aI14
ag131
asg11
(lp1028
I10
aI23
ag11
asg49
(lp1029
I23
aI13
ag129
asg74
(lp1030
I7
aI20
ag74
asg47
(lp1031
I7
aI27
ag47
asg45
(lp1032
I32
aI35
ag45
asg21
(lp1033
I24
aI37
ag21
asg25
(lp1034
I7
aI24
ag25
assg142
(dp1035
g59
(lp1036
I10
aI17
ag59
asg71
(lp1037
I28
aI18
ag142
asg122
(lp1038
I23
aI20
ag142
asg32
(lp1039
I24
aI27
ag32
asg19
(lp1040
I7
aI41
ag19
asg88
(lp1041
I8
aI22
ag88
asg39
(lp1042
I20
aI12
ag142
asg55
(lp1043
I34
aI31
ag142
assg154
(dp1044
g9
(lp1045
I27
aI12
ag154
asg11
(lp1046
I31
aI7
ag154
asg15
(lp1047
I33
aI13
ag154
asg111
(lp1048
I25
aI20
ag154
asg741
(lp1049
I38
aI17
ag154
asg37
(lp1050
I27
aI29
ag37
asg25
(lp1051
I28
aI26
ag154
asg94
(lp1052
I10
aI3
ag154
assg164
(dp1053
g45
(lp1054
I13
aI7
ag164
asg13
(lp1055
I20
aI13
ag164
asg47
(lp1056
I23
aI20
ag164
asg741
(lp1057
I31
aI10
ag164
asg21
(lp1058
I20
aI23
ag21
asg37
(lp1059
I21
aI55
ag37
asg15
(lp1060
I7
aI14
ag15
asg64
(lp1061
I45
aI7
ag164
assg174
(dp1062
g131
(lp1063
I23
aI21
ag174
asg11
(lp1064
I21
aI40
ag11
asg74
(lp1065
I21
aI14
ag174
asg47
(lp1066
I13
aI27
ag47
asg21
(lp1067
I24
aI20
ag174
asg23
(lp1068
I24
aI7
ag174
asg25
(lp1069
I10
aI6
ag174
asg64
(lp1070
I19
aI3
ag174
assg184
(dp1071
g83
(lp1072
I17
aI14
ag184
asg45
(lp1073
I12
aI0
ag184
asg86
(lp1074
I9
aI3
ag184
asg94
(lp1075
I27
aI13
ag184
asg32
(lp1076
I23
aI16
ag184
asg11
(lp1077
I12
aI0
ag184
asg21
(lp1078
I32
aI29
ag184
asg37
(lp1079
I24
aI14
ag184
asg25
(lp1080
I31
aI0
ag184
asg64
(lp1081
I17
aI6
ag184
assg194
(dp1082
g9
(lp1083
I27
aI10
ag194
asg49
(lp1084
I24
aI23
ag194
asg13
(lp1085
I24
aI17
ag194
asg17
(lp1086
I35
aI14
ag194
asg86
(lp1087
I34
aI7
ag194
asg23
(lp1088
I28
aI10
ag194
asg92
(lp1089
I23
aI16
ag194
asg53
(lp1090
I20
aI19
ag194
assg204
(dp1091
g71
(lp1092
I13
aI10
ag204
asg49
(lp1093
I21
aI23
ag49
asg111
(lp1094
I24
aI21
ag204
asg17
(lp1095
I24
aI16
ag204
asg19
(lp1096
I23
aI38
ag19
asg23
(lp1097
I28
aI3
ag204
asg74
(lp1098
I27
aI24
ag204
asg55
(lp1099
I20
aI7
ag204
assg214
(dp1100
g9
(lp1101
I14
aI17
ag9
asg45
(lp1102
I16
aI0
ag214
asg21
(lp1103
I9
aI12
ag21
asg47
(lp1104
I28
aI30
ag47
asg741
(lp1105
I16
aI3
ag214
asg19
(lp1106
I13
aI20
ag19
asg37
(lp1107
I35
aI38
ag37
asg64
(lp1108
I19
aI13
ag214
assg224
(dp1109
g83
(lp1110
I13
aI30
ag83
asg49
(lp1111
I21
aI33
ag49
asg86
(lp1112
I13
aI33
ag86
asg111
(lp1113
I27
aI7
ag224
asg122
(lp1114
I20
aI24
ag122
asg23
(lp1115
I28
aI15
ag224
asg39
(lp1116
I34
aI15
ag224
asg55
(lp1117
I40
aI24
ag224
assg234
(dp1118
g71
(lp1119
I48
aI17
ag234
asg21
(lp1120
I23
aI29
ag21
asg47
(lp1121
I36
aI0
ag234
asg122
(lp1122
I27
aI10
ag234
asg19
(lp1123
I34
aI24
ag234
asg35
(lp1124
I27
aI22
ag234
asg23
(lp1125
I37
aI13
ag234
asg39
(lp1126
I33
aI22
ag234
asg53
(lp1127
I27
aI24
ag234
assg244
(dp1128
g49
(lp1129
I20
aI26
ag49
asg111
(lp1130
I13
aI7
ag244
asg122
(lp1131
I14
aI21
ag122
asg37
(lp1132
I6
aI9
ag37
asg23
(lp1133
I44
aI6
ag244
asg39
(lp1134
I0
aI35
ag39
asg92
(lp1135
I6
aI13
ag92
asg55
(lp1136
I20
aI26
ag55
assg830
(dp1137
g59
(lp1138
I14
aI42
ag59
asg83
(lp1139
I24
aI27
ag83
asg21
(lp1140
I14
aI10
ag830
asg47
(lp1141
I17
aI13
ag830
asg30
(lp1142
I20
aI23
ag30
asg32
(lp1143
I14
aI19
ag32
asg37
(lp1144
I17
aI20
ag37
asg94
(lp1145
I24
aI20
ag830
assg254
(dp1146
g59
(lp1147
I34
aI40
ag59
asg131
(lp1148
I14
aI17
ag131
asg88
(lp1149
I31
aI3
ag254
asg71
(lp1150
I25
aI30
ag71
asg13
(lp1151
I34
aI21
ag254
asg17
(lp1152
I31
aI6
ag254
asg35
(lp1153
I33
aI27
ag254
asg53
(lp1154
I20
aI10
ag254
assg264
(dp1155
g131
(lp1156
I7
aI31
ag131
asg9
(lp1157
I20
aI24
ag9
asg45
(lp1158
I0
aI27
ag45
asg30
(lp1159
I20
aI17
ag264
asg32
(lp1160
I16
aI13
ag264
asg35
(lp1161
I27
aI20
ag264
asg15
(lp1162
I13
aI35
ag15
asg64
(lp1163
I21
aI24
ag64
assg274
(dp1164
g83
(lp1165
I17
aI30
ag83
asg9
(lp1166
I20
aI19
ag274
asg11
(lp1167
I10
aI24
ag11
asg25
(lp1168
I17
aI38
ag25
asg741
(lp1169
I27
aI0
ag274
asg37
(lp1170
I28
aI23
ag274
asg15
(lp1171
I17
aI10
ag274
asg55
(lp1172
I27
aI21
ag274
assg284
(dp1173
g17
(lp1174
I45
aI17
ag284
asg86
(lp1175
I41
aI20
ag284
asg111
(lp1176
I27
aI24
ag284
asg88
(lp1177
I24
aI23
ag284
asg13
(lp1178
I31
aI3
ag284
asg37
(lp1179
I31
aI38
ag37
asg55
(lp1180
I27
aI14
ag284
asg25
(lp1181
I38
aI5
ag284
asg92
(lp1182
I41
aI20
ag284
assg294
(dp1183
g9
(lp1184
I33
aI20
ag294
asg45
(lp1185
I36
aI10
ag294
asg15
(lp1186
I0
aI17
ag15
asg30
(lp1187
I10
aI31
ag30
asg53
(lp1188
I28
aI31
ag53
asg32
(lp1189
I24
aI17
ag294
asg19
(lp1190
I20
aI17
ag294
asg21
(lp1191
I3
aI14
ag21
asg74
(lp1192
I27
aI25
ag294
asg64
(lp1193
I28
aI10
ag294
assg305
(dp1194
g131
(lp1195
I13
aI23
ag131
asg11
(lp1196
I3
aI20
ag11
asg30
(lp1197
I31
aI0
ag305
asg122
(lp1198
I22
aI16
ag305
asg32
(lp1199
I17
aI6
ag305
asg741
(lp1200
I10
aI12
ag741
asg37
(lp1201
I14
aI17
ag37
asg74
(lp1202
I24
aI7
ag305
assg315
(dp1203
g83
(lp1204
I33
aI7
ag315
asg21
(lp1205
I20
aI23
ag21
asg47
(lp1206
I38
aI7
ag315
asg30
(lp1207
I34
aI38
ag30
asg32
(lp1208
I38
aI31
ag315
asg741
(lp1209
I30
aI21
ag315
asg88
(lp1210
I41
aI10
ag315
asg94
(lp1211
I23
aI13
ag315
assg325
(dp1212
g71
(lp1213
I18
aI17
ag325
asg49
(lp1214
I27
aI30
ag49
asg21
(lp1215
I17
aI20
ag21
asg122
(lp1216
I17
aI14
ag325
asg19
(lp1217
I20
aI13
ag325
asg35
(lp1218
I0
aI38
ag35
asg39
(lp1219
I18
aI26
ag39
asg53
(lp1220
I16
aI13
ag325
assg335
(dp1221
g49
(lp1222
I30
aI10
ag335
asg13
(lp1223
I49
aI7
ag335
asg17
(lp1224
I24
aI17
ag335
asg35
(lp1225
I17
aI24
ag35
asg86
(lp1226
I12
aI13
ag86
asg23
(lp1227
I50
aI14
ag335
asg15
(lp1228
I24
aI7
ag335
asg92
(lp1229
I30
aI14
ag335
assg345
(dp1230
g59
(lp1231
I24
aI28
ag59
asg71
(lp1232
I42
aI28
ag345
asg11
(lp1233
I10
aI26
ag11
asg111
(lp1234
I21
aI14
ag345
asg122
(lp1235
I27
aI34
ag122
asg19
(lp1236
I21
aI38
ag19
asg88
(lp1237
I13
aI37
ag88
asg39
(lp1238
I10
aI24
ag39
asssg2
(g4
S'\xd4\x07\x00\x00\x00\x00\x00\x00'
tRp1239
(dp1240
g7
(dp1241
g83
(lp1242
I20
aI3
ag7
asg45
(lp1243
I35
aI17
ag7
asg13
(lp1244
I27
aI22
ag7
asg17
(lp1245
I22
aI19
ag7
asg94
(lp1246
I27
aI16
ag7
asg19
(lp1247
I31
aI34
ag19
asg35
(lp1248
I23
aI27
ag35
asg64
(lp1249
I13
aI34
ag64
assg27
(dp1250
g83
(lp1251
I7
aI17
ag83
asg49
(lp1252
I31
aI14
ag27
asg92
(lp1253
I3
aI13
ag92
asg30
(lp1254
I29
aI28
ag27
asg32
(lp1255
I9
aI17
ag32
asg86
(lp1256
I10
aI7
ag27
asg23
(lp1257
I23
aI24
ag23
asg25
(lp1258
I32
aI42
ag25
assg42
(dp1259
g9
(lp1260
I18
aI21
ag9
asg49
(lp1261
I20
aI7
ag42
asg47
(lp1262
I10
aI27
ag47
asg111
(lp1263
I24
aI27
ag111
asg19
(lp1264
I14
aI24
ag19
asg23
(lp1265
I35
aI10
ag42
asg15
(lp1266
I21
aI14
ag42
asg55
(lp1267
I6
aI17
ag55
assg57
(dp1268
g9
(lp1269
I24
aI21
ag57
asg49
(lp1270
I47
aI17
ag57
asg111
(lp1271
I35
aI10
ag57
asg17
(lp1272
I10
aI17
ag17
asg21
(lp1273
I34
aI31
ag57
asg23
(lp1274
I6
aI3
ag57
asg15
(lp1275
I24
aI14
ag57
asg55
(lp1276
I21
aI20
ag57
assg69
(dp1277
g131
(lp1278
I13
aI30
ag131
asg71
(lp1279
I27
aI28
ag71
asg13
(lp1280
I19
aI13
ag69
asg741
(lp1281
I28
aI16
ag69
asg19
(lp1282
I10
aI38
ag19
asg37
(lp1283
I9
aI41
ag37
asg23
(lp1284
I26
aI12
ag69
asg74
(lp1285
I10
aI17
ag74
assg81
(dp1286
g11
(lp1287
I16
aI13
ag81
asg86
(lp1288
I58
aI48
ag81
asg45
(lp1289
I26
aI3
ag81
asg25
(lp1290
I17
aI33
ag25
asg88
(lp1291
I23
aI10
ag81
asg39
(lp1292
I9
aI23
ag39
asg92
(lp1293
I14
aI19
ag92
asg64
(lp1294
I23
aI22
ag81
assg96
(dp1295
g11
(lp1296
I41
aI14
ag96
asg122
(lp1297
I31
aI24
ag96
asg30
(lp1298
I7
aI23
ag30
asg741
(lp1299
I29
aI7
ag96
asg35
(lp1300
I37
aI14
ag96
asg39
(lp1301
I17
aI20
ag39
asg25
(lp1302
I16
aI14
ag96
asg53
(lp1303
I22
aI14
ag96
assg106
(dp1304
g59
(lp1305
I34
aI24
ag106
asg11
(lp1306
I20
aI17
ag106
asg21
(lp1307
I20
aI17
ag106
asg47
(lp1308
I28
aI41
ag47
asg111
(lp1309
I24
aI25
ag111
asg741
(lp1310
I31
aI13
ag106
asg37
(lp1311
I33
aI14
ag106
asg55
(lp1312
I23
aI13
ag106
assg117
(dp1313
g59
(lp1314
I24
aI27
ag59
asg45
(lp1315
I30
aI10
ag117
asg92
(lp1316
I30
aI13
ag117
asg122
(lp1317
I26
aI27
ag122
asg11
(lp1318
I30
aI23
ag117
asg86
(lp1319
I27
aI13
ag117
asg25
(lp1320
I20
aI6
ag117
asg64
(lp1321
I37
aI14
ag117
assg129
(dp1322
g131
(lp1323
I6
aI27
ag131
asg45
(lp1324
I28
aI24
ag129
asg86
(lp1325
I27
aI10
ag129
asg47
(lp1326
I10
aI14
ag47
asg17
(lp1327
I13
aI28
ag17
asg13
(lp1328
I21
aI28
ag13
asg74
(lp1329
I20
aI14
ag129
asg92
(lp1330
I30
aI33
ag92
assg142
(dp1331
g59
(lp1332
I27
aI34
ag59
asg83
(lp1333
I40
aI35
ag142
asg9
(lp1334
I26
aI31
ag9
asg25
(lp1335
I13
aI10
ag142
asg88
(lp1336
I3
aI31
ag88
asg15
(lp1337
I30
aI20
ag142
asg94
(lp1338
I6
aI13
ag94
asg55
(lp1339
I17
aI23
ag55
assg154
(dp1340
g59
(lp1341
I38
aI49
ag59
asg13
(lp1342
I17
aI19
ag13
asg17
(lp1343
I24
aI19
ag154
asg122
(lp1344
I27
aI20
ag154
asg741
(lp1345
I10
aI20
ag741
asg88
(lp1346
I16
aI37
ag88
asg37
(lp1347
I17
aI31
ag37
asg94
(lp1348
I12
aI15
ag94
assg164
(dp1349
g59
(lp1350
I27
aI20
ag164
asg35
(lp1351
I7
aI21
ag35
asg71
(lp1352
I31
aI38
ag71
asg21
(lp1353
I21
aI32
ag21
asg47
(lp1354
I26
aI13
ag164
asg88
(lp1355
I13
aI34
ag88
asg15
(lp1356
I17
aI20
ag15
asg53
(lp1357
I30
aI27
ag164
assg174
(dp1358
g131
(lp1359
I21
aI49
ag131
asg9
(lp1360
I13
aI27
ag9
asg86
(lp1361
I19
aI12
ag174
asg17
(lp1362
I31
aI21
ag174
asg13
(lp1363
I21
aI7
ag174
asg74
(lp1364
I13
aI10
ag174
asg92
(lp1365
I20
aI24
ag92
asg64
(lp1366
I10
aI26
ag64
assg184
(dp1367
g11
(lp1368
I24
aI10
ag184
asg122
(lp1369
I35
aI28
ag184
asg32
(lp1370
I13
aI7
ag184
asg35
(lp1371
I30
aI20
ag184
asg37
(lp1372
I20
aI3
ag184
asg39
(lp1373
I24
aI3
ag184
asg25
(lp1374
I29
aI6
ag184
asg53
(lp1375
I21
aI7
ag184
assg194
(dp1376
g11
(lp1377
I24
aI17
ag194
asg49
(lp1378
I20
aI27
ag49
asg21
(lp1379
I23
aI17
ag194
asg47
(lp1380
I28
aI26
ag194
asg45
(lp1381
I39
aI43
ag45
asg23
(lp1382
I24
aI21
ag194
asg25
(lp1383
I9
aI38
ag25
asg53
(lp1384
I34
aI0
ag194
assg204
(dp1385
g131
(lp1386
I9
aI19
ag131
asg71
(lp1387
I24
aI14
ag204
asg17
(lp1388
I16
aI20
ag17
asg741
(lp1389
I5
aI24
ag741
asg19
(lp1390
I14
aI31
ag19
asg37
(lp1391
I10
aI41
ag37
asg74
(lp1392
I10
aI13
ag74
asg53
(lp1393
I23
aI13
ag204
assg214
(dp1394
g59
(lp1395
I34
aI31
ag214
asg35
(lp1396
I6
aI10
ag35
asg9
(lp1397
I17
aI21
ag9
asg13
(lp1398
I19
aI7
ag214
asg47
(lp1399
I27
aI0
ag214
asg88
(lp1400
I13
aI16
ag88
asg21
(lp1401
I20
aI37
ag21
asg53
(lp1402
I35
aI3
ag214
assg224
(dp1403
g131
(lp1404
I27
aI3
ag224
asg86
(lp1405
I34
aI23
ag224
asg111
(lp1406
I24
aI21
ag224
asg122
(lp1407
I28
aI17
ag224
asg30
(lp1408
I27
aI41
ag30
asg32
(lp1409
I20
aI17
ag224
asg39
(lp1410
I20
aI7
ag224
asg74
(lp1411
I16
aI7
ag224
assg234
(dp1412
g131
(lp1413
I20
aI7
ag234
asg9
(lp1414
I25
aI28
ag9
asg30
(lp1415
I22
aI40
ag30
asg32
(lp1416
I32
aI29
ag234
asg35
(lp1417
I23
aI12
ag234
asg23
(lp1418
I17
aI10
ag234
asg15
(lp1419
I28
aI21
ag234
asg53
(lp1420
I16
aI6
ag234
assg244
(dp1421
g131
(lp1422
I31
aI34
ag131
asg74
(lp1423
I17
aI13
ag244
asg122
(lp1424
I34
aI17
ag244
asg30
(lp1425
I15
aI42
ag30
asg32
(lp1426
I7
aI10
ag32
asg39
(lp1427
I20
aI3
ag244
asg92
(lp1428
I10
aI24
ag92
asg55
(lp1429
I0
aI21
ag55
assg830
(dp1430
g83
(lp1431
I31
aI21
ag830
asg71
(lp1432
I28
aI34
ag71
asg86
(lp1433
I14
aI22
ag86
asg111
(lp1434
I30
aI17
ag830
asg19
(lp1435
I13
aI16
ag19
asg37
(lp1436
I14
aI23
ag37
asg94
(lp1437
I20
aI6
ag830
asg55
(lp1438
I20
aI27
ag55
assg254
(dp1439
g83
(lp1440
I27
aI48
ag83
asg71
(lp1441
I17
aI31
ag71
asg45
(lp1442
I41
aI20
ag254
asg13
(lp1443
I10
aI21
ag13
asg17
(lp1444
I16
aI13
ag254
asg94
(lp1445
I25
aI28
ag94
asg49
(lp1446
I45
aI17
ag254
asg64
(lp1447
I7
aI14
ag64
assg264
(dp1448
g131
(lp1449
I14
aI17
ag131
asg71
(lp1450
I21
aI18
ag264
asg45
(lp1451
I18
aI21
ag45
asg122
(lp1452
I10
aI17
ag122
asg19
(lp1453
I14
aI28
ag19
asg39
(lp1454
I10
aI17
ag39
asg15
(lp1455
I16
aI10
ag264
asg64
(lp1456
I31
aI7
ag264
assg274
(dp1457
g59
(lp1458
I22
aI16
ag274
asg83
(lp1459
I15
aI18
ag83
asg13
(lp1460
I22
aI3
ag274
asg17
(lp1461
I23
aI17
ag274
asg741
(lp1462
I0
aI21
ag741
asg88
(lp1463
I7
aI6
ag274
asg37
(lp1464
I17
aI24
ag37
asg92
(lp1465
I16
aI17
ag92
assg284
(dp1466
g21
(lp1467
I17
aI28
ag21
asg47
(lp1468
I56
aI10
ag284
asg111
(lp1469
I31
aI30
ag284
asg30
(lp1470
I19
aI27
ag30
asg741
(lp1471
I21
aI24
ag741
asg88
(lp1472
I45
aI17
ag284
asg37
(lp1473
I45
aI35
ag284
asg55
(lp1474
I31
aI34
ag55
assg294
(dp1475
g71
(lp1476
I27
aI14
ag294
asg45
(lp1477
I12
aI7
ag294
asg21
(lp1478
I30
aI8
ag294
asg47
(lp1479
I27
aI10
ag294
asg122
(lp1480
I10
aI38
ag122
asg30
(lp1481
I21
aI24
ag30
asg19
(lp1482
I47
aI17
ag294
asg39
(lp1483
I15
aI10
ag294
asg74
(lp1484
I28
aI6
ag294
asg64
(lp1485
I31
aI17
ag294
assg305
(dp1486
g11
(lp1487
I20
aI13
ag305
asg86
(lp1488
I37
aI7
ag305
asg30
(lp1489
I17
aI31
ag30
asg32
(lp1490
I22
aI17
ag305
asg49
(lp1491
I37
aI17
ag305
asg23
(lp1492
I38
aI14
ag305
asg92
(lp1493
I24
aI29
ag92
asg94
(lp1494
I10
aI13
ag94
assg315
(dp1495
g83
(lp1496
I51
aI24
ag315
asg71
(lp1497
I31
aI28
ag315
asg111
(lp1498
I35
aI14
ag315
asg741
(lp1499
I49
aI14
ag315
asg19
(lp1500
I45
aI31
ag315
asg88
(lp1501
I49
aI24
ag315
asg39
(lp1502
I20
aI10
ag315
asg94
(lp1503
I24
aI27
ag94
asg55
(lp1504
I34
aI31
ag315
assg325
(dp1505
g9
(lp1506
I34
aI10
ag325
asg49
(lp1507
I31
aI7
ag325
asg30
(lp1508
I12
aI23
ag30
asg64
(lp1509
I17
aI14
ag325
asg32
(lp1510
I3
aI13
ag32
asg35
(lp1511
I25
aI17
ag325
asg15
(lp1512
I12
aI7
ag325
asg53
(lp1513
I28
aI31
ag53
assg335
(dp1514
g49
(lp1515
I14
aI24
ag49
asg21
(lp1516
I27
aI37
ag21
asg47
(lp1517
I19
aI21
ag47
asg11
(lp1518
I17
aI24
ag11
asg25
(lp1519
I7
aI41
ag25
asg35
(lp1520
I27
aI42
ag35
asg23
(lp1521
I31
aI28
ag335
asg74
(lp1522
I16
aI26
ag74
assg345
(dp1523
g59
(lp1524
I24
aI17
ag345
asg83
(lp1525
I38
aI17
ag345
asg9
(lp1526
I43
aI17
ag345
asg111
(lp1527
I42
aI14
ag345
asg32
(lp1528
I17
aI20
ag32
asg88
(lp1529
I20
aI17
ag345
asg15
(lp1530
I31
aI24
ag345
asg94
(lp1531
I34
aI21
ag345
asssg2
(g4
S'\xd5\x07\x00\x00\x00\x00\x00\x00'
tRp1532
(dp1533
g7
(dp1534
g9
(lp1535
I33
aI16
ag7
asg49
(lp1536
I27
aI13
ag7
asg86
(lp1537
I24
aI12
ag7
asg17
(lp1538
I27
aI14
ag7
asg19
(lp1539
I23
aI20
ag7
asg13
(lp1540
I34
aI10
ag7
asg15
(lp1541
I13
aI24
ag15
asg92
(lp1542
I3
aI18
ag92
assg27
(dp1543
g59
(lp1544
I20
aI30
ag59
asg83
(lp1545
I24
aI10
ag27
asg21
(lp1546
I27
aI24
ag27
asg47
(lp1547
I10
aI17
ag47
asg30
(lp1548
I16
aI23
ag30
asg32
(lp1549
I24
aI20
ag27
asg88
(lp1550
I34
aI10
ag27
asg25
(lp1551
I24
aI23
ag27
assg42
(dp1552
g71
(lp1553
I38
aI13
ag42
asg45
(lp1554
I20
aI24
ag45
asg47
(lp1555
I24
aI6
ag42
asg9
(lp1556
I20
aI23
ag9
asg30
(lp1557
I27
aI17
ag42
asg32
(lp1558
I30
aI3
ag42
asg19
(lp1559
I32
aI29
ag42
asg15
(lp1560
I10
aI20
ag15
assg57
(dp1561
g131
(lp1562
I14
aI10
ag57
asg71
(lp1563
I30
aI10
ag57
asg21
(lp1564
I11
aI44
ag21
asg9
(lp1565
I36
aI17
ag57
asg30
(lp1566
I28
aI31
ag30
asg32
(lp1567
I27
aI14
ag57
asg19
(lp1568
I25
aI33
ag19
asg15
(lp1569
I27
aI30
ag15
assg69
(dp1570
g71
(lp1571
I16
aI21
ag71
asg21
(lp1572
I20
aI21
ag21
asg47
(lp1573
I7
aI27
ag47
asg122
(lp1574
I17
aI41
ag122
asg19
(lp1575
I17
aI3
ag69
asg13
(lp1576
I13
aI19
ag13
asg23
(lp1577
I29
aI21
ag69
asg39
(lp1578
I35
aI17
ag69
assg81
(dp1579
g71
(lp1580
I37
aI8
ag81
asg86
(lp1581
I23
aI20
ag81
asg741
(lp1582
I16
aI10
ag81
asg19
(lp1583
I21
aI14
ag81
asg37
(lp1584
I37
aI45
ag37
asg39
(lp1585
I42
aI29
ag81
asg25
(lp1586
I27
aI37
ag25
asg92
(lp1587
I17
aI31
ag92
assg96
(dp1588
g9
(lp1589
I19
aI21
ag9
asg11
(lp1590
I17
aI7
ag96
asg25
(lp1591
I30
aI26
ag96
asg111
(lp1592
I26
aI10
ag96
asg30
(lp1593
I21
aI31
ag30
asg15
(lp1594
I14
aI12
ag96
asg94
(lp1595
I20
aI26
ag94
asg55
(lp1596
I26
aI31
ag55
assg106
(dp1597
g59
(lp1598
I30
aI10
ag106
asg131
(lp1599
I49
aI21
ag106
asg92
(lp1600
I17
aI34
ag92
asg111
(lp1601
I22
aI3
ag106
asg30
(lp1602
I27
aI13
ag106
asg32
(lp1603
I27
aI0
ag106
asg39
(lp1604
I12
aI10
ag106
asg74
(lp1605
I21
aI19
ag106
asg55
(lp1606
I20
aI17
ag106
assg117
(dp1607
g71
(lp1608
I30
aI23
ag117
asg86
(lp1609
I16
aI3
ag117
asg122
(lp1610
I9
aI21
ag122
asg32
(lp1611
I13
aI3
ag117
asg741
(lp1612
I16
aI15
ag117
asg19
(lp1613
I48
aI3
ag117
asg37
(lp1614
I7
aI24
ag37
asg92
(lp1615
I16
aI13
ag117
assg129
(dp1616
g59
(lp1617
I27
aI17
ag129
asg131
(lp1618
I27
aI17
ag129
asg71
(lp1619
I21
aI24
ag71
asg49
(lp1620
I44
aI24
ag129
asg21
(lp1621
I0
aI23
ag21
asg45
(lp1622
I17
aI10
ag129
asg88
(lp1623
I24
aI23
ag129
asg23
(lp1624
I42
aI19
ag129
asg74
(lp1625
I36
aI0
ag129
assg142
(dp1626
g59
(lp1627
I17
aI23
ag59
asg45
(lp1628
I19
aI13
ag142
asg86
(lp1629
I7
aI9
ag86
asg11
(lp1630
I21
aI33
ag11
asg88
(lp1631
I17
aI31
ag88
asg25
(lp1632
I38
aI17
ag142
asg64
(lp1633
I21
aI30
ag64
asg55
(lp1634
I14
aI27
ag55
assg154
(dp1635
g111
(lp1636
I25
aI34
ag111
asg122
(lp1637
I23
aI31
ag122
asg94
(lp1638
I28
aI31
ag94
asg741
(lp1639
I13
aI10
ag154
asg35
(lp1640
I24
aI28
ag35
asg37
(lp1641
I10
aI31
ag37
asg39
(lp1642
I25
aI10
ag154
asg53
(lp1643
I33
aI22
ag154
assg164
(dp1644
g11
(lp1645
I6
aI21
ag11
asg13
(lp1646
I17
aI20
ag13
asg47
(lp1647
I31
aI34
ag47
asg17
(lp1648
I12
aI13
ag17
asg25
(lp1649
I19
aI7
ag164
asg21
(lp1650
I10
aI27
ag21
asg15
(lp1651
I3
aI10
ag15
asg64
(lp1652
I10
aI27
ag64
assg174
(dp1653
g59
(lp1654
I31
aI28
ag174
asg131
(lp1655
I33
aI10
ag174
asg49
(lp1656
I10
aI20
ag49
asg17
(lp1657
I20
aI7
ag174
asg88
(lp1658
I21
aI24
ag88
asg23
(lp1659
I34
aI13
ag174
asg74
(lp1660
I13
aI14
ag74
asg64
(lp1661
I16
aI13
ag174
assg184
(dp1662
g9
(lp1663
I24
aI17
ag184
asg11
(lp1664
I26
aI28
ag11
asg15
(lp1665
I28
aI0
ag184
asg111
(lp1666
I30
aI20
ag184
asg32
(lp1667
I16
aI3
ag184
asg37
(lp1668
I21
aI40
ag37
asg25
(lp1669
I21
aI16
ag184
asg94
(lp1670
I28
aI3
ag184
asg55
(lp1671
I17
aI41
ag55
assg194
(dp1672
g45
(lp1673
I13
aI10
ag194
asg21
(lp1674
I34
aI14
ag194
asg47
(lp1675
I21
aI18
ag194
asg53
(lp1676
I41
aI3
ag194
asg49
(lp1677
I31
aI16
ag194
asg741
(lp1678
I42
aI10
ag194
asg37
(lp1679
I28
aI13
ag194
asg23
(lp1680
I37
aI12
ag194
asg74
(lp1681
I20
aI10
ag194
asg64
(lp1682
I24
aI21
ag194
assg204
(dp1683
g71
(lp1684
I28
aI3
ag204
asg21
(lp1685
I21
aI29
ag21
asg47
(lp1686
I16
aI3
ag204
asg17
(lp1687
I38
aI6
ag204
asg122
(lp1688
I7
aI24
ag122
asg19
(lp1689
I19
aI7
ag204
asg39
(lp1690
I10
aI6
ag204
asg53
(lp1691
I17
aI9
ag204
assg214
(dp1692
g9
(lp1693
I27
aI13
ag214
asg11
(lp1694
I27
aI13
ag214
asg13
(lp1695
I10
aI13
ag13
asg47
(lp1696
I27
aI24
ag214
asg17
(lp1697
I17
aI13
ag214
asg21
(lp1698
I14
aI34
ag21
asg74
(lp1699
I10
aI17
ag74
asg25
(lp1700
I19
aI3
ag214
assg224
(dp1701
g83
(lp1702
I34
aI7
ag224
asg86
(lp1703
I34
aI21
ag224
asg17
(lp1704
I35
aI21
ag224
asg122
(lp1705
I31
aI38
ag122
asg30
(lp1706
I20
aI23
ag30
asg35
(lp1707
I21
aI10
ag224
asg13
(lp1708
I21
aI9
ag224
asg39
(lp1709
I20
aI19
ag224
asg94
(lp1710
I17
aI23
ag94
assg234
(dp1711
g131
(lp1712
I16
aI17
ag131
asg83
(lp1713
I31
aI27
ag234
asg9
(lp1714
I28
aI17
ag234
asg53
(lp1715
I20
aI24
ag53
asg35
(lp1716
I31
aI37
ag35
asg23
(lp1717
I28
aI38
ag23
asg74
(lp1718
I9
aI24
ag74
asg94
(lp1719
I24
aI21
ag234
assg244
(dp1720
g83
(lp1721
I20
aI14
ag244
asg11
(lp1722
I22
aI0
ag244
asg13
(lp1723
I20
aI10
ag244
asg17
(lp1724
I10
aI13
ag17
asg122
(lp1725
I13
aI27
ag122
asg39
(lp1726
I20
aI16
ag244
asg92
(lp1727
I0
aI41
ag92
asg94
(lp1728
I14
aI20
ag94
assg830
(dp1729
g59
(lp1730
I17
aI45
ag59
asg83
(lp1731
I20
aI34
ag83
asg49
(lp1732
I27
aI33
ag49
asg86
(lp1733
I19
aI16
ag830
asg37
(lp1734
I20
aI38
ag37
asg23
(lp1735
I30
aI19
ag830
asg92
(lp1736
I7
aI27
ag92
asg94
(lp1737
I20
aI38
ag94
assg254
(dp1738
g71
(lp1739
I17
aI20
ag71
asg86
(lp1740
I24
aI26
ag86
asg9
(lp1741
I52
aI3
ag254
asg17
(lp1742
I16
aI13
ag254
asg35
(lp1743
I23
aI17
ag254
asg13
(lp1744
I17
aI24
ag13
asg15
(lp1745
I16
aI17
ag15
asg92
(lp1746
I10
aI20
ag92
assg264
(dp1747
g131
(lp1748
I17
aI10
ag264
asg45
(lp1749
I35
aI7
ag264
asg13
(lp1750
I9
aI7
ag264
asg111
(lp1751
I13
aI16
ag111
asg64
(lp1752
I35
aI20
ag264
asg35
(lp1753
I20
aI17
ag264
asg53
(lp1754
I52
aI17
ag264
asg55
(lp1755
I17
aI23
ag55
assg274
(dp1756
g35
(lp1757
I26
aI14
ag274
asg83
(lp1758
I40
aI13
ag274
asg122
(lp1759
I23
aI20
ag274
asg741
(lp1760
I21
aI14
ag274
asg88
(lp1761
I7
aI20
ag88
asg37
(lp1762
I18
aI26
ag37
asg39
(lp1763
I30
aI3
ag274
asg53
(lp1764
I10
aI9
ag274
assg284
(dp1765
g131
(lp1766
I31
aI37
ag131
asg111
(lp1767
I27
aI23
ag284
asg30
(lp1768
I26
aI16
ag284
asg122
(lp1769
I37
aI3
ag284
asg32
(lp1770
I27
aI7
ag284
asg88
(lp1771
I31
aI27
ag284
asg74
(lp1772
I28
aI21
ag284
asg55
(lp1773
I20
aI7
ag284
assg294
(dp1774
g45
(lp1775
I20
aI21
ag45
asg111
(lp1776
I23
aI20
ag294
asg64
(lp1777
I23
aI26
ag64
asg19
(lp1778
I19
aI14
ag294
asg35
(lp1779
I0
aI42
ag35
asg74
(lp1780
I20
aI31
ag74
asg53
(lp1781
I42
aI3
ag294
asg55
(lp1782
I20
aI17
ag294
assg305
(dp1783
g59
(lp1784
I14
aI3
ag305
asg11
(lp1785
I20
aI14
ag305
asg21
(lp1786
I9
aI13
ag21
asg47
(lp1787
I16
aI24
ag47
asg30
(lp1788
I7
aI35
ag30
asg32
(lp1789
I27
aI17
ag305
asg741
(lp1790
I22
aI7
ag305
asg88
(lp1791
I17
aI28
ag88
assg315
(dp1792
g83
(lp1793
I35
aI3
ag315
asg49
(lp1794
I45
aI28
ag315
asg86
(lp1795
I13
aI6
ag315
asg741
(lp1796
I31
aI17
ag315
asg23
(lp1797
I17
aI13
ag315
asg92
(lp1798
I18
aI21
ag92
asg94
(lp1799
I10
aI3
ag315
asg55
(lp1800
I17
aI26
ag55
assg325
(dp1801
g131
(lp1802
I27
aI21
ag325
asg83
(lp1803
I20
aI10
ag325
asg49
(lp1804
I12
aI17
ag49
asg21
(lp1805
I20
aI24
ag21
asg94
(lp1806
I17
aI24
ag94
asg35
(lp1807
I19
aI33
ag35
asg74
(lp1808
I13
aI17
ag74
asg53
(lp1809
I31
aI14
ag325
assg335
(dp1810
g49
(lp1811
I28
aI25
ag335
asg45
(lp1812
I31
aI34
ag45
asg741
(lp1813
I20
aI17
ag335
asg35
(lp1814
I25
aI27
ag35
asg37
(lp1815
I3
aI28
ag37
asg23
(lp1816
I10
aI17
ag23
asg15
(lp1817
I15
aI10
ag335
asg64
(lp1818
I6
aI24
ag64
assg345
(dp1819
g59
(lp1820
I28
aI20
ag345
asg45
(lp1821
I24
aI28
ag45
asg92
(lp1822
I22
aI24
ag92
asg111
(lp1823
I34
aI10
ag345
asg11
(lp1824
I21
aI23
ag11
asg88
(lp1825
I7
aI23
ag88
asg25
(lp1826
I48
aI10
ag345
asg64
(lp1827
I45
aI23
ag345
asssg2
(g4
S'\xd6\x07\x00\x00\x00\x00\x00\x00'
tRp1828
(dp1829
g7
(dp1830
g49
(lp1831
I21
aI41
ag49
asg21
(lp1832
I16
aI13
ag7
asg17
(lp1833
I26
aI17
ag7
asg30
(lp1834
I7
aI31
ag30
asg32
(lp1835
I13
aI26
ag32
asg19
(lp1836
I17
aI23
ag19
asg13
(lp1837
I16
aI19
ag13
asg23
(lp1838
I31
aI26
ag7
assg27
(dp1839
g59
(lp1840
I13
aI10
ag27
asg83
(lp1841
I13
aI10
ag27
asg71
(lp1842
I24
aI20
ag27
asg30
(lp1843
I21
aI0
ag27
asg32
(lp1844
I10
aI13
ag32
asg19
(lp1845
I24
aI34
ag19
asg25
(lp1846
I6
aI16
ag25
asg94
(lp1847
I10
aI24
ag94
assg42
(dp1848
g9
(lp1849
I21
aI18
ag42
asg45
(lp1850
I14
aI35
ag45
asg86
(lp1851
I20
aI12
ag42
asg47
(lp1852
I6
aI20
ag47
asg49
(lp1853
I15
aI0
ag42
asg15
(lp1854
I24
aI10
ag42
asg64
(lp1855
I13
aI27
ag64
asg92
(lp1856
I3
aI37
ag92
assg57
(dp1857
g9
(lp1858
I13
aI31
ag9
asg45
(lp1859
I28
aI38
ag45
asg86
(lp1860
I13
aI17
ag86
asg21
(lp1861
I3
aI10
ag21
asg23
(lp1862
I32
aI10
ag57
asg15
(lp1863
I14
aI3
ag57
asg64
(lp1864
I14
aI27
ag64
asg92
(lp1865
I41
aI38
ag57
assg69
(dp1866
g71
(lp1867
I20
aI30
ag71
asg11
(lp1868
I10
aI27
ag11
asg13
(lp1869
I21
aI26
ag13
asg47
(lp1870
I30
aI14
ag69
asg19
(lp1871
I24
aI31
ag19
asg35
(lp1872
I6
aI9
ag35
asg25
(lp1873
I20
aI17
ag69
asg53
(lp1874
I13
aI19
ag53
assg81
(dp1875
g86
(lp1876
I34
aI17
ag81
asg47
(lp1877
I27
aI29
ag47
asg111
(lp1878
I27
aI10
ag81
asg30
(lp1879
I13
aI38
ag30
asg21
(lp1880
I17
aI14
ag81
asg39
(lp1881
I13
aI7
ag81
asg92
(lp1882
I17
aI23
ag92
asg55
(lp1883
I41
aI49
ag55
assg96
(dp1884
g11
(lp1885
I20
aI17
ag96
asg13
(lp1886
I0
aI10
ag13
asg17
(lp1887
I31
aI24
ag96
asg30
(lp1888
I17
aI24
ag30
asg741
(lp1889
I26
aI11
ag96
asg37
(lp1890
I28
aI31
ag37
asg25
(lp1891
I13
aI31
ag25
asg111
(lp1892
I23
aI3
ag96
assg106
(dp1893
g59
(lp1894
I9
aI6
ag106
asg111
(lp1895
I13
aI3
ag106
asg122
(lp1896
I24
aI23
ag106
asg35
(lp1897
I20
aI23
ag35
asg37
(lp1898
I31
aI34
ag37
asg39
(lp1899
I13
aI3
ag106
asg53
(lp1900
I23
aI26
ag53
asg55
(lp1901
I27
aI35
ag55
assg117
(dp1902
g21
(lp1903
I21
aI23
ag21
asg47
(lp1904
I24
aI10
ag117
asg111
(lp1905
I28
aI6
ag117
asg122
(lp1906
I26
aI20
ag117
asg25
(lp1907
I19
aI7
ag117
asg86
(lp1908
I27
aI17
ag117
asg37
(lp1909
I6
aI15
ag37
asg92
(lp1910
I27
aI0
ag117
asg55
(lp1911
I16
aI13
ag117
assg129
(dp1912
g131
(lp1913
I22
aI36
ag131
asg9
(lp1914
I7
aI30
ag9
asg45
(lp1915
I20
aI23
ag45
asg74
(lp1916
I19
aI3
ag129
asg741
(lp1917
I14
aI10
ag129
asg13
(lp1918
I20
aI38
ag13
asg37
(lp1919
I21
aI26
ag37
asg15
(lp1920
I17
aI3
ag129
assg142
(dp1921
g59
(lp1922
I9
aI20
ag59
asg49
(lp1923
I0
aI20
ag49
asg86
(lp1924
I21
aI24
ag86
asg741
(lp1925
I14
aI23
ag741
asg88
(lp1926
I13
aI17
ag88
asg23
(lp1927
I22
aI9
ag142
asg92
(lp1928
I20
aI13
ag142
asg55
(lp1929
I0
aI27
ag55
assg154
(dp1930
g45
(lp1931
I14
aI45
ag45
asg30
(lp1932
I23
aI40
ag30
asg94
(lp1933
I24
aI17
ag154
asg32
(lp1934
I16
aI23
ag32
asg741
(lp1935
I28
aI22
ag154
asg37
(lp1936
I20
aI17
ag154
asg39
(lp1937
I26
aI27
ag39
asg64
(lp1938
I24
aI21
ag154
assg164
(dp1939
g131
(lp1940
I27
aI24
ag164
asg74
(lp1941
I10
aI16
ag74
asg47
(lp1942
I23
aI3
ag164
asg122
(lp1943
I16
aI31
ag122
asg21
(lp1944
I21
aI31
ag21
asg39
(lp1945
I22
aI35
ag39
asg15
(lp1946
I24
aI21
ag164
asg53
(lp1947
I34
aI10
ag164
assg174
(dp1948
g131
(lp1949
I7
aI23
ag131
asg9
(lp1950
I17
aI42
ag9
asg74
(lp1951
I27
aI10
ag174
asg17
(lp1952
I31
aI39
ag17
asg741
(lp1953
I34
aI6
ag174
asg37
(lp1954
I21
aI14
ag174
asg15
(lp1955
I38
aI10
ag174
asg64
(lp1956
I22
aI36
ag64
assg184
(dp1957
g11
(lp1958
I20
aI10
ag184
asg13
(lp1959
I17
aI13
ag184
asg17
(lp1960
I28
aI21
ag184
asg32
(lp1961
I37
aI16
ag184
asg741
(lp1962
I40
aI7
ag184
asg88
(lp1963
I7
aI17
ag88
asg37
(lp1964
I20
aI27
ag37
asg25
(lp1965
I19
aI17
ag184
assg194
(dp1966
g71
(lp1967
I13
aI31
ag71
asg49
(lp1968
I24
aI22
ag194
asg111
(lp1969
I16
aI0
ag194
asg53
(lp1970
I14
aI24
ag53
asg45
(lp1971
I21
aI20
ag194
asg19
(lp1972
I34
aI24
ag194
asg23
(lp1973
I21
aI10
ag194
asg64
(lp1974
I42
aI30
ag194
asg55
(lp1975
I17
aI20
ag55
assg204
(dp1976
g71
(lp1977
I23
aI13
ag204
asg11
(lp1978
I13
aI31
ag11
asg15
(lp1979
I34
aI31
ag204
asg9
(lp1980
I39
aI14
ag204
asg17
(lp1981
I34
aI7
ag204
asg19
(lp1982
I7
aI26
ag19
asg35
(lp1983
I27
aI24
ag204
asg37
(lp1984
I17
aI29
ag37
asg25
(lp1985
I40
aI7
ag204
asg53
(lp1986
I41
aI10
ag204
assg214
(dp1987
g131
(lp1988
I23
aI21
ag214
asg9
(lp1989
I14
aI31
ag9
asg21
(lp1990
I24
aI26
ag21
asg47
(lp1991
I6
aI17
ag47
asg122
(lp1992
I14
aI13
ag214
asg35
(lp1993
I7
aI23
ag35
asg39
(lp1994
I0
aI27
ag39
asg74
(lp1995
I20
aI17
ag214
assg224
(dp1996
g59
(lp1997
I45
aI7
ag224
asg9
(lp1998
I38
aI31
ag224
asg11
(lp1999
I28
aI17
ag224
asg86
(lp2000
I27
aI7
ag224
asg122
(lp2001
I20
aI28
ag122
asg88
(lp2002
I20
aI31
ag88
asg39
(lp2003
I7
aI31
ag39
asg15
(lp2004
I20
aI3
ag224
assg234
(dp2005
g59
(lp2006
I17
aI31
ag59
asg88
(lp2007
I18
aI10
ag234
asg13
(lp2008
I27
aI42
ag13
asg17
(lp2009
I41
aI34
ag234
asg35
(lp2010
I28
aI30
ag35
asg23
(lp2011
I20
aI34
ag23
asg74
(lp2012
I37
aI31
ag234
asg53
(lp2013
I20
aI17
ag234
assg244
(dp2014
g59
(lp2015
I31
aI28
ag244
asg9
(lp2016
I14
aI19
ag9
asg15
(lp2017
I7
aI22
ag15
asg122
(lp2018
I0
aI30
ag122
asg32
(lp2019
I20
aI13
ag244
asg88
(lp2020
I7
aI17
ag88
asg39
(lp2021
I14
aI15
ag39
asg92
(lp2022
I20
aI24
ag92
assg830
(dp2023
g131
(lp2024
I10
aI24
ag131
asg83
(lp2025
I20
aI26
ag83
asg11
(lp2026
I17
aI15
ag830
asg74
(lp2027
I15
aI31
ag74
asg86
(lp2028
I14
aI6
ag830
asg37
(lp2029
I27
aI24
ag830
asg25
(lp2030
I21
aI24
ag25
asg94
(lp2031
I27
aI7
ag830
assg254
(dp2032
g9
(lp2033
I27
aI34
ag9
asg49
(lp2034
I20
aI23
ag49
asg13
(lp2035
I0
aI26
ag13
asg71
(lp2036
I9
aI7
ag254
asg17
(lp2037
I17
aI9
ag254
asg30
(lp2038
I0
aI35
ag30
asg32
(lp2039
I10
aI38
ag32
asg23
(lp2040
I31
aI14
ag254
assg264
(dp2041
g131
(lp2042
I19
aI21
ag131
asg83
(lp2043
I22
aI25
ag83
asg71
(lp2044
I16
aI19
ag71
asg45
(lp2045
I22
aI19
ag264
asg21
(lp2046
I17
aI13
ag264
asg47
(lp2047
I14
aI24
ag47
asg64
(lp2048
I28
aI34
ag64
asg94
(lp2049
I36
aI30
ag264
assg274
(dp2050
g83
(lp2051
I37
aI7
ag274
asg45
(lp2052
I24
aI17
ag274
asg30
(lp2053
I21
aI24
ag30
asg32
(lp2054
I41
aI0
ag274
asg741
(lp2055
I10
aI13
ag741
asg37
(lp2056
I44
aI17
ag274
asg92
(lp2057
I9
aI0
ag274
asg64
(lp2058
I26
aI10
ag274
assg284
(dp2059
g35
(lp2060
I35
aI28
ag284
asg111
(lp2061
I17
aI13
ag284
asg122
(lp2062
I10
aI23
ag122
asg94
(lp2063
I35
aI30
ag284
asg88
(lp2064
I19
aI10
ag284
asg39
(lp2065
I10
aI20
ag39
asg53
(lp2066
I41
aI0
ag284
asg55
(lp2067
I30
aI27
ag284
assg294
(dp2068
g83
(lp2069
I13
aI31
ag83
asg45
(lp2070
I38
aI24
ag294
asg21
(lp2071
I27
aI24
ag294
asg47
(lp2072
I24
aI17
ag294
asg94
(lp2073
I6
aI13
ag94
asg19
(lp2074
I31
aI9
ag294
asg74
(lp2075
I27
aI3
ag294
asg64
(lp2076
I23
aI20
ag294
assg305
(dp2077
g83
(lp2078
I29
aI30
ag83
asg71
(lp2079
I17
aI12
ag305
asg11
(lp2080
I21
aI0
ag305
asg30
(lp2081
I6
aI28
ag30
asg32
(lp2082
I20
aI28
ag32
asg19
(lp2083
I24
aI10
ag305
asg94
(lp2084
I27
aI24
ag305
asg55
(lp2085
I21
aI24
ag55
assg315
(dp2086
g59
(lp2087
I23
aI8
ag315
asg131
(lp2088
I45
aI21
ag315
asg83
(lp2089
I14
aI13
ag315
asg11
(lp2090
I27
aI22
ag315
asg74
(lp2091
I36
aI22
ag315
asg122
(lp2092
I34
aI16
ag315
asg30
(lp2093
I38
aI34
ag315
asg741
(lp2094
I43
aI24
ag315
asg25
(lp2095
I17
aI16
ag315
asg94
(lp2096
I21
aI14
ag315
assg325
(dp2097
g59
(lp2098
I20
aI23
ag59
asg88
(lp2099
I20
aI37
ag88
asg49
(lp2100
I14
aI16
ag49
asg13
(lp2101
I23
aI24
ag13
asg17
(lp2102
I17
aI10
ag325
asg45
(lp2103
I10
aI27
ag45
asg35
(lp2104
I27
aI21
ag325
asg53
(lp2105
I34
aI27
ag325
assg335
(dp2106
g131
(lp2107
I24
aI38
ag131
asg71
(lp2108
I9
aI3
ag335
asg49
(lp2109
I20
aI13
ag335
asg111
(lp2110
I34
aI20
ag335
asg19
(lp2111
I19
aI30
ag19
asg35
(lp2112
I20
aI14
ag335
asg23
(lp2113
I20
aI26
ag23
asg55
(lp2114
I19
aI48
ag55
assg345
(dp2115
g59
(lp2116
I20
aI9
ag345
asg83
(lp2117
I40
aI7
ag345
asg49
(lp2118
I38
aI24
ag345
asg86
(lp2119
I32
aI25
ag345
asg111
(lp2120
I21
aI14
ag345
asg30
(lp2121
I21
aI24
ag30
asg88
(lp2122
I48
aI20
ag345
asg23
(lp2123
I27
aI20
ag345
asg92
(lp2124
I23
aI13
ag345
asssg2
(g4
S'\xd7\x07\x00\x00\x00\x00\x00\x00'
tRp2125
(dp2126
g7
(dp2127
g131
(lp2128
I16
aI23
ag131
asg111
(lp2129
I29
aI22
ag7
asg47
(lp2130
I24
aI3
ag7
asg17
(lp2131
I42
aI10
ag7
asg19
(lp2132
I16
aI23
ag19
asg13
(lp2133
I20
aI13
ag7
asg74
(lp2134
I21
aI32
ag74
asg55
(lp2135
I35
aI17
ag7
assg27
(dp2136
g45
(lp2137
I20
aI37
ag45
asg111
(lp2138
I17
aI35
ag111
asg30
(lp2139
I28
aI49
ag30
asg122
(lp2140
I25
aI38
ag122
asg32
(lp2141
I13
aI40
ag32
asg39
(lp2142
I22
aI16
ag27
asg25
(lp2143
I10
aI13
ag25
asg64
(lp2144
I10
aI13
ag64
assg42
(dp2145
g9
(lp2146
I6
aI31
ag9
asg45
(lp2147
I13
aI20
ag45
asg47
(lp2148
I13
aI20
ag47
asg741
(lp2149
I21
aI34
ag741
asg35
(lp2150
I13
aI10
ag42
asg37
(lp2151
I7
aI31
ag37
asg15
(lp2152
I7
aI20
ag15
asg53
(lp2153
I31
aI14
ag42
assg57
(dp2154
g9
(lp2155
I14
aI34
ag9
asg21
(lp2156
I20
aI27
ag21
asg53
(lp2157
I20
aI16
ag57
asg741
(lp2158
I26
aI16
ag57
asg35
(lp2159
I44
aI41
ag57
asg37
(lp2160
I13
aI31
ag37
asg15
(lp2161
I7
aI31
ag15
asg64
(lp2162
I10
aI31
ag64
assg69
(dp2163
g59
(lp2164
I25
aI20
ag69
asg71
(lp2165
I20
aI17
ag69
asg45
(lp2166
I27
aI28
ag45
asg13
(lp2167
I37
aI27
ag69
asg19
(lp2168
I26
aI37
ag19
asg88
(lp2169
I44
aI7
ag69
asg15
(lp2170
I23
aI16
ag69
asg64
(lp2171
I10
aI16
ag64
assg81
(dp2172
g83
(lp2173
I35
aI6
ag81
asg49
(lp2174
I19
aI10
ag81
asg86
(lp2175
I19
aI14
ag81
asg30
(lp2176
I13
aI34
ag30
asg32
(lp2177
I38
aI31
ag81
asg23
(lp2178
I27
aI35
ag23
asg39
(lp2179
I27
aI20
ag81
asg92
(lp2180
I13
aI24
ag92
assg96
(dp2181
g59
(lp2182
I13
aI10
ag96
asg131
(lp2183
I9
aI16
ag131
asg11
(lp2184
I31
aI28
ag96
asg25
(lp2185
I3
aI13
ag25
asg30
(lp2186
I14
aI38
ag30
asg86
(lp2187
I18
aI24
ag86
asg74
(lp2188
I20
aI23
ag74
asg92
(lp2189
I19
aI16
ag96
assg106
(dp2190
g59
(lp2191
I41
aI7
ag106
asg83
(lp2192
I34
aI20
ag106
asg71
(lp2193
I22
aI19
ag106
asg111
(lp2194
I23
aI20
ag106
asg19
(lp2195
I13
aI19
ag19
asg92
(lp2196
I31
aI28
ag106
asg94
(lp2197
I14
aI23
ag94
asg55
(lp2198
I3
aI41
ag55
assg117
(dp2199
g49
(lp2200
I22
aI3
ag117
asg86
(lp2201
I30
aI33
ag86
asg122
(lp2202
I7
aI21
ag122
asg30
(lp2203
I24
aI27
ag30
asg32
(lp2204
I20
aI13
ag117
asg37
(lp2205
I20
aI44
ag37
asg23
(lp2206
I26
aI23
ag117
asg92
(lp2207
I27
aI21
ag117
assg129
(dp2208
g131
(lp2209
I16
aI3
ag129
asg71
(lp2210
I17
aI41
ag71
asg45
(lp2211
I20
aI31
ag45
asg30
(lp2212
I35
aI38
ag30
asg32
(lp2213
I35
aI24
ag129
asg19
(lp2214
I13
aI35
ag19
asg74
(lp2215
I10
aI22
ag74
asg53
(lp2216
I33
aI15
ag129
assg154
(dp2217
g21
(lp2218
I20
aI7
ag154
asg47
(lp2219
I20
aI13
ag154
asg111
(lp2220
I13
aI9
ag154
asg32
(lp2221
I10
aI6
ag154
asg741
(lp2222
I28
aI20
ag154
asg37
(lp2223
I20
aI22
ag37
asg94
(lp2224
I13
aI28
ag94
asg55
(lp2225
I17
aI23
ag55
assg164
(dp2226
g131
(lp2227
I23
aI38
ag131
asg83
(lp2228
I14
aI31
ag83
asg49
(lp2229
I29
aI37
ag49
asg21
(lp2230
I13
aI16
ag21
asg47
(lp2231
I22
aI16
ag164
asg23
(lp2232
I31
aI24
ag164
asg15
(lp2233
I23
aI27
ag15
asg94
(lp2234
I41
aI24
ag164
assg174
(dp2235
g131
(lp2236
I6
aI10
ag131
asg71
(lp2237
I24
aI14
ag174
asg49
(lp2238
I35
aI7
ag174
asg30
(lp2239
I27
aI48
ag30
asg32
(lp2240
I34
aI3
ag174
asg19
(lp2241
I37
aI27
ag174
asg74
(lp2242
I28
aI23
ag174
asg64
(lp2243
I17
aI21
ag64
assg184
(dp2244
g131
(lp2245
I31
aI28
ag184
asg11
(lp2246
I28
aI7
ag184
asg86
(lp2247
I34
aI17
ag184
asg64
(lp2248
I14
aI17
ag64
asg32
(lp2249
I20
aI10
ag184
asg25
(lp2250
I38
aI7
ag184
asg55
(lp2251
I21
aI12
ag184
asg74
(lp2252
I52
aI7
ag184
asg94
(lp2253
I31
aI20
ag184
asg92
(lp2254
I34
aI13
ag184
assg194
(dp2255
g9
(lp2256
I17
aI28
ag9
asg49
(lp2257
I33
aI6
ag194
asg13
(lp2258
I30
aI23
ag194
asg122
(lp2259
I24
aI21
ag194
asg74
(lp2260
I35
aI14
ag194
asg23
(lp2261
I42
aI21
ag194
asg39
(lp2262
I27
aI6
ag194
asg15
(lp2263
I20
aI6
ag194
asg53
(lp2264
I24
aI0
ag194
assg244
(dp2265
g11
(lp2266
I41
aI31
ag244
asg25
(lp2267
I8
aI0
ag244
asg122
(lp2268
I51
aI45
ag244
asg741
(lp2269
I27
aI17
ag244
asg35
(lp2270
I33
aI30
ag244
asg39
(lp2271
I27
aI13
ag244
asg92
(lp2272
I7
aI34
ag92
asg53
(lp2273
I20
aI7
ag244
assg305
(dp2274
g45
(lp2275
I24
aI25
ag45
asg122
(lp2276
I33
aI21
ag305
asg30
(lp2277
I10
aI56
ag30
asg32
(lp2278
I17
aI14
ag305
asg11
(lp2279
I38
aI17
ag305
asg88
(lp2280
I14
aI15
ag88
asg39
(lp2281
I19
aI14
ag305
asg64
(lp2282
I21
aI38
ag64
assg234
(dp2283
g21
(lp2284
I13
aI27
ag21
asg47
(lp2285
I28
aI16
ag234
asg19
(lp2286
I14
aI33
ag19
asg35
(lp2287
I19
aI24
ag35
asg86
(lp2288
I20
aI27
ag86
asg23
(lp2289
I31
aI34
ag23
asg92
(lp2290
I24
aI41
ag92
asg53
(lp2291
I16
aI17
ag53
assg142
(dp2292
g59
(lp2293
I10
aI12
ag59
asg86
(lp2294
I26
aI24
ag142
asg17
(lp2295
I21
aI36
ag17
asg741
(lp2296
I17
aI24
ag741
asg88
(lp2297
I34
aI20
ag142
asg13
(lp2298
I6
aI17
ag13
asg37
(lp2299
I14
aI21
ag37
asg55
(lp2300
I17
aI30
ag55
assg214
(dp2301
g83
(lp2302
I13
aI10
ag214
asg9
(lp2303
I31
aI14
ag214
asg49
(lp2304
I24
aI3
ag214
asg21
(lp2305
I23
aI31
ag21
asg47
(lp2306
I37
aI3
ag214
asg64
(lp2307
I14
aI24
ag64
asg23
(lp2308
I17
aI10
ag214
asg74
(lp2309
I19
aI13
ag214
asg94
(lp2310
I23
aI24
ag94
assg830
(dp2311
g59
(lp2312
I20
aI3
ag830
asg83
(lp2313
I36
aI38
ag83
asg9
(lp2314
I23
aI10
ag830
asg11
(lp2315
I22
aI19
ag830
asg88
(lp2316
I31
aI13
ag830
asg37
(lp2317
I24
aI30
ag37
asg15
(lp2318
I28
aI14
ag830
asg94
(lp2319
I42
aI28
ag830
assg254
(dp2320
g131
(lp2321
I16
aI13
ag254
asg71
(lp2322
I34
aI0
ag254
asg21
(lp2323
I31
aI17
ag254
asg111
(lp2324
I38
aI7
ag254
asg17
(lp2325
I34
aI13
ag254
asg35
(lp2326
I42
aI20
ag254
asg13
(lp2327
I20
aI27
ag13
asg74
(lp2328
I17
aI14
ag254
asg64
(lp2329
I20
aI23
ag64
asg55
(lp2330
I31
aI24
ag254
assg204
(dp2331
g59
(lp2332
I20
aI10
ag204
asg71
(lp2333
I31
aI34
ag71
asg45
(lp2334
I10
aI34
ag45
asg9
(lp2335
I33
aI25
ag204
asg17
(lp2336
I7
aI16
ag17
asg19
(lp2337
I35
aI7
ag204
asg88
(lp2338
I37
aI34
ag204
asg64
(lp2339
I16
aI21
ag64
assg264
(dp2340
g131
(lp2341
I25
aI33
ag131
asg11
(lp2342
I16
aI13
ag264
asg13
(lp2343
I24
aI16
ag264
asg17
(lp2344
I34
aI3
ag264
asg45
(lp2345
I27
aI6
ag264
asg23
(lp2346
I21
aI19
ag264
asg25
(lp2347
I16
aI17
ag25
asg64
(lp2348
I17
aI24
ag64
assg274
(dp2349
g83
(lp2350
I10
aI13
ag83
asg21
(lp2351
I37
aI6
ag274
asg47
(lp2352
I13
aI7
ag274
asg111
(lp2353
I49
aI11
ag274
asg741
(lp2354
I37
aI17
ag274
asg37
(lp2355
I7
aI29
ag37
asg25
(lp2356
I36
aI14
ag274
asg55
(lp2357
I24
aI17
ag274
assg284
(dp2358
g83
(lp2359
I17
aI26
ag83
asg71
(lp2360
I13
aI10
ag284
asg111
(lp2361
I17
aI20
ag111
asg122
(lp2362
I27
aI20
ag284
asg19
(lp2363
I22
aI33
ag19
asg88
(lp2364
I11
aI27
ag88
asg94
(lp2365
I7
aI17
ag94
asg55
(lp2366
I10
aI24
ag55
assg294
(dp2367
g45
(lp2368
I17
aI38
ag45
asg13
(lp2369
I16
aI19
ag13
asg17
(lp2370
I56
aI21
ag294
asg11
(lp2371
I17
aI7
ag294
asg25
(lp2372
I17
aI9
ag294
asg35
(lp2373
I24
aI28
ag35
asg74
(lp2374
I12
aI20
ag74
asg64
(lp2375
I13
aI16
ag64
assg224
(dp2376
g11
(lp2377
I3
aI0
ag224
asg86
(lp2378
I31
aI28
ag224
asg122
(lp2379
I24
aI10
ag224
asg94
(lp2380
I29
aI31
ag94
asg35
(lp2381
I21
aI0
ag224
asg39
(lp2382
I38
aI7
ag224
asg25
(lp2383
I26
aI3
ag224
asg53
(lp2384
I37
aI16
ag224
assg315
(dp2385
g59
(lp2386
I13
aI10
ag315
asg83
(lp2387
I10
aI16
ag83
asg9
(lp2388
I41
aI10
ag315
asg30
(lp2389
I20
aI24
ag30
asg741
(lp2390
I38
aI15
ag315
asg88
(lp2391
I38
aI20
ag315
asg15
(lp2392
I33
aI14
ag315
asg94
(lp2393
I28
aI25
ag315
asg55
(lp2394
I24
aI28
ag55
assg325
(dp2395
g49
(lp2396
I48
aI19
ag325
asg21
(lp2397
I10
aI25
ag21
asg47
(lp2398
I30
aI27
ag325
asg17
(lp2399
I31
aI21
ag325
asg35
(lp2400
I23
aI20
ag325
asg86
(lp2401
I27
aI21
ag325
asg92
(lp2402
I21
aI14
ag325
asg53
(lp2403
I31
aI37
ag53
assg335
(dp2404
g71
(lp2405
I7
aI27
ag71
asg49
(lp2406
I9
aI13
ag49
asg9
(lp2407
I10
aI31
ag9
asg122
(lp2408
I20
aI13
ag335
asg35
(lp2409
I3
aI23
ag35
asg23
(lp2410
I20
aI17
ag335
asg39
(lp2411
I7
aI9
ag39
asg15
(lp2412
I21
aI19
ag335
assg345
(dp2413
g59
(lp2414
I16
aI30
ag59
asg17
(lp2415
I51
aI14
ag345
asg83
(lp2416
I17
aI6
ag345
asg13
(lp2417
I14
aI3
ag345
asg111
(lp2418
I28
aI14
ag345
asg741
(lp2419
I35
aI10
ag345
asg88
(lp2420
I23
aI3
ag345
asg37
(lp2421
I23
aI21
ag345
asg39
(lp2422
I32
aI14
ag345
asssg2
(g4
S'\xd8\x07\x00\x00\x00\x00\x00\x00'
tRp2423
(dp2424
g7
(dp2425
g131
(lp2426
I14
aI26
ag131
asg21
(lp2427
I20
aI10
ag7
asg47
(lp2428
I17
aI24
ag47
asg17
(lp2429
I12
aI10
ag7
asg741
(lp2430
I28
aI21
ag7
asg19
(lp2431
I28
aI27
ag7
asg13
(lp2432
I34
aI14
ag7
asg37
(lp2433
I15
aI18
ag37
asg64
(lp2434
I20
aI19
ag7
assg27
(dp2435
g111
(lp2436
I17
aI15
ag27
asg30
(lp2437
I28
aI48
ag30
asg32
(lp2438
I14
aI20
ag32
asg35
(lp2439
I21
aI19
ag27
asg39
(lp2440
I9
aI27
ag39
asg25
(lp2441
I25
aI16
ag27
asg53
(lp2442
I14
aI9
ag27
asg55
(lp2443
I17
aI10
ag27
assg42
(dp2444
g59
(lp2445
I34
aI0
ag42
asg9
(lp2446
I30
aI7
ag42
asg13
(lp2447
I20
aI17
ag42
asg47
(lp2448
I24
aI9
ag42
asg17
(lp2449
I31
aI22
ag42
asg88
(lp2450
I30
aI10
ag42
asg23
(lp2451
I13
aI33
ag23
asg15
(lp2452
I38
aI23
ag42
assg57
(dp2453
g59
(lp2454
I38
aI14
ag57
asg9
(lp2455
I34
aI20
ag57
asg49
(lp2456
I31
aI27
ag57
asg13
(lp2457
I22
aI20
ag57
asg17
(lp2458
I34
aI21
ag57
asg88
(lp2459
I20
aI24
ag88
asg21
(lp2460
I45
aI28
ag57
asg15
(lp2461
I13
aI10
ag57
assg69
(dp2462
g83
(lp2463
I10
aI47
ag83
asg71
(lp2464
I16
aI20
ag71
asg13
(lp2465
I7
aI34
ag13
asg9
(lp2466
I7
aI42
ag9
asg19
(lp2467
I25
aI48
ag19
asg74
(lp2468
I17
aI25
ag74
asg15
(lp2469
I20
aI38
ag15
asg94
(lp2470
I14
aI38
ag94
assg81
(dp2471
g59
(lp2472
I16
aI6
ag81
asg131
(lp2473
I13
aI13
ag131
asg83
(lp2474
I7
aI24
ag83
asg86
(lp2475
I12
aI20
ag86
asg74
(lp2476
I20
aI13
ag81
asg39
(lp2477
I3
aI34
ag39
asg92
(lp2478
I10
aI38
ag92
asg94
(lp2479
I21
aI19
ag81
assg96
(dp2480
g59
(lp2481
I28
aI24
ag96
asg49
(lp2482
I47
aI3
ag96
asg30
(lp2483
I10
aI19
ag30
asg122
(lp2484
I26
aI14
ag96
asg11
(lp2485
I17
aI24
ag11
asg88
(lp2486
I17
aI34
ag88
asg23
(lp2487
I56
aI35
ag96
asg25
(lp2488
I31
aI27
ag96
assg106
(dp2489
g59
(lp2490
I24
aI17
ag106
asg9
(lp2491
I34
aI32
ag106
asg11
(lp2492
I17
aI26
ag11
asg25
(lp2493
I23
aI30
ag25
asg111
(lp2494
I10
aI31
ag111
asg15
(lp2495
I16
aI13
ag106
asg94
(lp2496
I17
aI24
ag94
asg55
(lp2497
I39
aI38
ag106
assg117
(dp2498
g131
(lp2499
I36
aI7
ag117
asg83
(lp2500
I10
aI13
ag83
asg86
(lp2501
I28
aI10
ag117
asg111
(lp2502
I29
aI10
ag117
asg122
(lp2503
I17
aI10
ag117
asg74
(lp2504
I24
aI10
ag117
asg94
(lp2505
I27
aI7
ag117
asg92
(lp2506
I9
aI13
ag92
assg129
(dp2507
g131
(lp2508
I11
aI23
ag131
asg45
(lp2509
I35
aI14
ag129
asg21
(lp2510
I34
aI28
ag129
asg122
(lp2511
I26
aI23
ag129
asg35
(lp2512
I44
aI6
ag129
asg39
(lp2513
I30
aI10
ag129
asg74
(lp2514
I16
aI7
ag129
asg53
(lp2515
I29
aI17
ag129
assg154
(dp2516
g71
(lp2517
I30
aI17
ag154
asg86
(lp2518
I28
aI9
ag154
asg32
(lp2519
I13
aI34
ag32
asg741
(lp2520
I31
aI12
ag154
asg19
(lp2521
I19
aI16
ag154
asg37
(lp2522
I31
aI21
ag154
asg39
(lp2523
I10
aI13
ag39
asg92
(lp2524
I31
aI14
ag154
asg94
(lp2525
I17
aI10
ag154
assg164
(dp2526
g71
(lp2527
I27
aI30
ag71
asg21
(lp2528
I31
aI33
ag21
asg47
(lp2529
I29
aI25
ag164
asg111
(lp2530
I34
aI3
ag164
asg19
(lp2531
I51
aI29
ag164
asg15
(lp2532
I24
aI20
ag164
asg53
(lp2533
I31
aI17
ag164
asg55
(lp2534
I37
aI32
ag164
assg174
(dp2535
g131
(lp2536
I41
aI37
ag174
asg74
(lp2537
I24
aI26
ag74
asg122
(lp2538
I31
aI22
ag174
asg64
(lp2539
I20
aI8
ag174
asg35
(lp2540
I34
aI9
ag174
asg39
(lp2541
I24
aI33
ag39
asg15
(lp2542
I13
aI9
ag174
asg53
(lp2543
I35
aI22
ag174
assg184
(dp2544
g59
(lp2545
I17
aI10
ag184
asg11
(lp2546
I13
aI38
ag11
asg92
(lp2547
I10
aI33
ag92
asg32
(lp2548
I31
aI34
ag32
asg49
(lp2549
I23
aI16
ag184
asg88
(lp2550
I41
aI7
ag184
asg23
(lp2551
I47
aI7
ag184
asg25
(lp2552
I20
aI10
ag184
assg194
(dp2553
g131
(lp2554
I7
aI26
ag131
asg49
(lp2555
I37
aI13
ag194
asg30
(lp2556
I21
aI24
ag30
asg32
(lp2557
I13
aI3
ag194
asg19
(lp2558
I17
aI27
ag19
asg23
(lp2559
I20
aI26
ag23
asg74
(lp2560
I17
aI20
ag74
asg53
(lp2561
I30
aI33
ag53
assg244
(dp2562
g45
(lp2563
I10
aI28
ag45
asg122
(lp2564
I0
aI14
ag122
asg741
(lp2565
I6
aI16
ag741
asg88
(lp2566
I30
aI34
ag88
asg37
(lp2567
I6
aI10
ag37
asg39
(lp2568
I27
aI37
ag39
asg92
(lp2569
I6
aI10
ag92
asg64
(lp2570
I35
aI14
ag244
assg214
(dp2571
g9
(lp2572
I23
aI20
ag214
asg21
(lp2573
I27
aI3
ag214
asg47
(lp2574
I24
aI9
ag214
asg71
(lp2575
I19
aI13
ag214
asg111
(lp2576
I24
aI31
ag111
asg19
(lp2577
I30
aI21
ag214
asg35
(lp2578
I20
aI10
ag214
asg55
(lp2579
I24
aI41
ag55
assg224
(dp2580
g45
(lp2581
I20
aI13
ag224
asg86
(lp2582
I31
aI0
ag224
asg122
(lp2583
I27
aI10
ag224
asg741
(lp2584
I38
aI17
ag224
asg37
(lp2585
I20
aI24
ag37
asg39
(lp2586
I23
aI14
ag224
asg64
(lp2587
I14
aI21
ag64
asg55
(lp2588
I35
aI24
ag224
assg234
(dp2589
g45
(lp2590
I34
aI14
ag234
asg13
(lp2591
I3
aI27
ag13
asg53
(lp2592
I16
aI17
ag53
asg11
(lp2593
I12
aI16
ag11
asg35
(lp2594
I20
aI23
ag35
asg23
(lp2595
I13
aI34
ag23
asg25
(lp2596
I14
aI31
ag25
asg64
(lp2597
I13
aI41
ag64
assg142
(dp2598
g59
(lp2599
I13
aI20
ag59
asg21
(lp2600
I6
aI17
ag21
asg47
(lp2601
I0
aI24
ag47
asg30
(lp2602
I26
aI49
ag30
asg32
(lp2603
I16
aI13
ag142
asg741
(lp2604
I27
aI16
ag142
asg88
(lp2605
I14
aI41
ag88
asg55
(lp2606
I18
aI28
ag55
assg830
(dp2607
g83
(lp2608
I13
aI12
ag830
asg11
(lp2609
I29
aI28
ag830
asg13
(lp2610
I31
aI24
ag830
asg17
(lp2611
I28
aI21
ag830
asg122
(lp2612
I35
aI6
ag830
asg37
(lp2613
I27
aI31
ag37
asg39
(lp2614
I13
aI41
ag39
asg94
(lp2615
I30
aI17
ag830
assg254
(dp2616
g71
(lp2617
I24
aI19
ag254
asg45
(lp2618
I16
aI27
ag45
asg21
(lp2619
I31
aI35
ag21
asg47
(lp2620
I24
aI27
ag47
asg17
(lp2621
I31
aI21
ag254
asg741
(lp2622
I21
aI24
ag741
asg13
(lp2623
I37
aI3
ag254
asg37
(lp2624
I34
aI14
ag254
assg204
(dp2625
g131
(lp2626
I24
aI20
ag204
asg83
(lp2627
I14
aI21
ag83
asg71
(lp2628
I48
aI41
ag204
asg9
(lp2629
I27
aI24
ag204
asg17
(lp2630
I27
aI23
ag204
asg19
(lp2631
I20
aI17
ag204
asg15
(lp2632
I24
aI27
ag15
asg94
(lp2633
I23
aI10
ag204
assg264
(dp2634
g131
(lp2635
I10
aI3
ag264
asg9
(lp2636
I29
aI24
ag264
asg49
(lp2637
I17
aI19
ag49
asg86
(lp2638
I14
aI11
ag264
asg45
(lp2639
I10
aI14
ag45
asg23
(lp2640
I24
aI17
ag264
asg92
(lp2641
I6
aI23
ag92
asg64
(lp2642
I7
aI23
ag64
assg274
(dp2643
g83
(lp2644
I14
aI24
ag83
asg71
(lp2645
I12
aI30
ag71
asg25
(lp2646
I16
aI20
ag25
asg741
(lp2647
I30
aI27
ag274
asg19
(lp2648
I20
aI16
ag274
asg86
(lp2649
I17
aI23
ag86
asg37
(lp2650
I24
aI31
ag37
asg92
(lp2651
I21
aI26
ag92
assg284
(dp2652
g83
(lp2653
I10
aI34
ag83
asg9
(lp2654
I20
aI30
ag9
asg11
(lp2655
I31
aI38
ag11
asg25
(lp2656
I31
aI54
ag25
asg111
(lp2657
I8
aI23
ag111
asg88
(lp2658
I33
aI19
ag284
asg15
(lp2659
I27
aI30
ag15
asg55
(lp2660
I21
aI22
ag55
assg294
(dp2661
g49
(lp2662
I38
aI3
ag294
asg92
(lp2663
I15
aI6
ag294
asg47
(lp2664
I27
aI14
ag294
asg45
(lp2665
I44
aI6
ag294
asg86
(lp2666
I30
aI10
ag294
asg23
(lp2667
I48
aI20
ag294
asg74
(lp2668
I17
aI23
ag74
asg64
(lp2669
I31
aI36
ag64
assg305
(dp2670
g11
(lp2671
I3
aI16
ag11
asg86
(lp2672
I27
aI29
ag86
asg111
(lp2673
I24
aI23
ag305
asg30
(lp2674
I0
aI13
ag30
asg32
(lp2675
I17
aI26
ag32
asg35
(lp2676
I34
aI10
ag305
asg53
(lp2677
I3
aI10
ag53
asg55
(lp2678
I23
aI14
ag305
assg315
(dp2679
g83
(lp2680
I23
aI0
ag315
asg13
(lp2681
I13
aI29
ag13
asg17
(lp2682
I31
aI21
ag315
asg122
(lp2683
I35
aI3
ag315
asg30
(lp2684
I18
aI15
ag315
asg741
(lp2685
I33
aI27
ag315
asg39
(lp2686
I31
aI3
ag315
asg94
(lp2687
I21
aI23
ag94
assg325
(dp2688
g131
(lp2689
I32
aI25
ag325
asg49
(lp2690
I34
aI10
ag325
asg71
(lp2691
I14
aI35
ag71
asg11
(lp2692
I31
aI10
ag325
asg92
(lp2693
I23
aI27
ag92
asg47
(lp2694
I30
aI24
ag325
asg64
(lp2695
I29
aI37
ag64
asg45
(lp2696
I30
aI24
ag325
asg35
(lp2697
I34
aI21
ag325
asg25
(lp2698
I41
aI17
ag325
asg53
(lp2699
I29
aI24
ag325
assg335
(dp2700
g131
(lp2701
I26
aI40
ag131
asg49
(lp2702
I35
aI16
ag335
asg17
(lp2703
I31
aI13
ag335
asg30
(lp2704
I21
aI30
ag30
asg32
(lp2705
I24
aI14
ag335
asg35
(lp2706
I13
aI34
ag35
asg23
(lp2707
I13
aI23
ag23
asg74
(lp2708
I27
aI24
ag335
assg345
(dp2709
g59
(lp2710
I20
aI19
ag345
asg21
(lp2711
I24
aI26
ag21
asg47
(lp2712
I16
aI22
ag47
asg111
(lp2713
I34
aI7
ag345
asg30
(lp2714
I30
aI10
ag345
asg32
(lp2715
I48
aI29
ag345
asg88
(lp2716
I52
aI21
ag345
asg37
(lp2717
I23
aI17
ag345
asssg2
(g4
S'\xd9\x07\x00\x00\x00\x00\x00\x00'
tRp2718
(dp2719
g7
(dp2720
g45
(lp2721
I34
aI3
ag7
asg13
(lp2722
I36
aI10
ag7
asg17
(lp2723
I27
aI10
ag7
asg122
(lp2724
I30
aI10
ag7
asg64
(lp2725
I44
aI7
ag7
asg19
(lp2726
I30
aI23
ag7
asg35
(lp2727
I35
aI9
ag7
asg39
(lp2728
I33
aI31
ag7
asg53
(lp2729
I27
aI24
ag7
assg27
(dp2730
g9
(lp2731
I34
aI46
ag9
asg25
(lp2732
I38
aI10
ag27
asg30
(lp2733
I22
aI21
ag27
asg32
(lp2734
I31
aI27
ag27
asg741
(lp2735
I20
aI27
ag741
asg37
(lp2736
I23
aI27
ag37
asg15
(lp2737
I25
aI23
ag27
asg92
(lp2738
I24
aI30
ag92
assg42
(dp2739
g131
(lp2740
I10
aI38
ag131
asg71
(lp2741
I26
aI7
ag42
asg11
(lp2742
I17
aI24
ag11
asg15
(lp2743
I16
aI6
ag42
asg47
(lp2744
I28
aI19
ag42
asg9
(lp2745
I23
aI10
ag42
asg74
(lp2746
I20
aI17
ag42
asg25
(lp2747
I9
aI20
ag25
assg57
(dp2748
g131
(lp2749
I7
aI34
ag131
asg9
(lp2750
I23
aI26
ag9
asg11
(lp2751
I19
aI7
ag57
asg21
(lp2752
I28
aI20
ag57
asg25
(lp2753
I31
aI3
ag57
asg13
(lp2754
I21
aI14
ag57
asg74
(lp2755
I31
aI17
ag57
asg15
(lp2756
I20
aI17
ag57
assg69
(dp2757
g13
(lp2758
I23
aI37
ag13
asg71
(lp2759
I13
aI27
ag71
asg49
(lp2760
I10
aI17
ag49
asg74
(lp2761
I19
aI14
ag69
asg19
(lp2762
I12
aI34
ag19
asg86
(lp2763
I38
aI37
ag69
asg23
(lp2764
I24
aI31
ag23
asg92
(lp2765
I20
aI28
ag92
assg81
(dp2766
g59
(lp2767
I17
aI10
ag81
asg13
(lp2768
I45
aI10
ag81
asg17
(lp2769
I23
aI13
ag81
asg32
(lp2770
I14
aI24
ag32
asg741
(lp2771
I17
aI28
ag741
asg88
(lp2772
I7
aI12
ag88
asg86
(lp2773
I16
aI7
ag81
asg39
(lp2774
I17
aI7
ag81
asg92
(lp2775
I23
aI20
ag81
assg96
(dp2776
g83
(lp2777
I24
aI17
ag96
asg11
(lp2778
I25
aI30
ag11
asg21
(lp2779
I17
aI6
ag96
asg47
(lp2780
I7
aI10
ag47
asg30
(lp2781
I16
aI9
ag96
asg122
(lp2782
I37
aI0
ag96
asg25
(lp2783
I13
aI16
ag25
asg94
(lp2784
I22
aI24
ag94
assg106
(dp2785
g59
(lp2786
I24
aI44
ag59
asg45
(lp2787
I17
aI10
ag106
asg86
(lp2788
I27
aI6
ag106
asg111
(lp2789
I19
aI20
ag111
asg30
(lp2790
I20
aI17
ag106
asg92
(lp2791
I10
aI28
ag92
asg64
(lp2792
I26
aI6
ag106
asg55
(lp2793
I3
aI32
ag55
assg117
(dp2794
g59
(lp2795
I38
aI24
ag117
asg86
(lp2796
I34
aI3
ag117
asg17
(lp2797
I48
aI3
ag117
asg122
(lp2798
I14
aI17
ag122
asg88
(lp2799
I30
aI7
ag117
asg13
(lp2800
I31
aI7
ag117
asg37
(lp2801
I15
aI17
ag37
asg92
(lp2802
I20
aI17
ag117
assg129
(dp2803
g131
(lp2804
I38
aI45
ag131
asg45
(lp2805
I31
aI24
ag129
asg21
(lp2806
I9
aI41
ag21
asg47
(lp2807
I34
aI31
ag129
asg111
(lp2808
I44
aI7
ag129
asg23
(lp2809
I17
aI24
ag23
asg74
(lp2810
I23
aI17
ag129
asg55
(lp2811
I20
aI21
ag55
assg142
(dp2812
g59
(lp2813
I10
aI16
ag59
asg131
(lp2814
I13
aI9
ag142
asg122
(lp2815
I20
aI17
ag142
asg32
(lp2816
I0
aI38
ag32
asg88
(lp2817
I3
aI23
ag88
asg39
(lp2818
I13
aI21
ag39
asg74
(lp2819
I13
aI34
ag74
asg55
(lp2820
I20
aI24
ag55
assg154
(dp2821
g49
(lp2822
I47
aI7
ag154
asg11
(lp2823
I27
aI24
ag154
asg741
(lp2824
I31
aI34
ag741
asg37
(lp2825
I9
aI31
ag37
asg23
(lp2826
I20
aI17
ag154
asg25
(lp2827
I41
aI17
ag154
asg94
(lp2828
I30
aI13
ag154
asg55
(lp2829
I17
aI42
ag55
assg164
(dp2830
g71
(lp2831
I31
aI28
ag164
asg45
(lp2832
I17
aI24
ag45
asg21
(lp2833
I30
aI20
ag164
asg47
(lp2834
I35
aI27
ag164
asg17
(lp2835
I45
aI27
ag164
asg30
(lp2836
I38
aI17
ag164
asg32
(lp2837
I24
aI10
ag164
asg23
(lp2838
I45
aI14
ag164
asg15
(lp2839
I17
aI20
ag15
asg64
(lp2840
I48
aI27
ag164
assg174
(dp2841
g131
(lp2842
I34
aI14
ag174
asg21
(lp2843
I21
aI7
ag174
asg47
(lp2844
I37
aI21
ag174
asg111
(lp2845
I24
aI7
ag174
asg35
(lp2846
I38
aI17
ag174
asg74
(lp2847
I7
aI6
ag174
asg64
(lp2848
I31
aI33
ag64
asg55
(lp2849
I17
aI20
ag55
assg184
(dp2850
g83
(lp2851
I59
aI0
ag184
asg11
(lp2852
I27
aI17
ag184
asg21
(lp2853
I20
aI10
ag184
asg47
(lp2854
I26
aI10
ag184
asg32
(lp2855
I31
aI14
ag184
asg39
(lp2856
I14
aI33
ag39
asg25
(lp2857
I25
aI24
ag184
asg94
(lp2858
I35
aI7
ag184
assg194
(dp2859
g83
(lp2860
I13
aI17
ag83
asg49
(lp2861
I28
aI0
ag194
asg13
(lp2862
I19
aI25
ag13
asg17
(lp2863
I32
aI20
ag194
asg53
(lp2864
I20
aI17
ag194
asg23
(lp2865
I3
aI27
ag23
asg15
(lp2866
I7
aI24
ag15
asg94
(lp2867
I41
aI0
ag194
assg204
(dp2868
g131
(lp2869
I20
aI24
ag131
asg71
(lp2870
I36
aI30
ag204
asg49
(lp2871
I17
aI9
ag204
asg86
(lp2872
I30
aI6
ag204
asg17
(lp2873
I48
aI24
ag204
asg19
(lp2874
I14
aI21
ag19
asg23
(lp2875
I21
aI41
ag23
asg92
(lp2876
I17
aI14
ag204
assg214
(dp2877
g9
(lp2878
I7
aI38
ag9
asg45
(lp2879
I21
aI34
ag45
asg21
(lp2880
I21
aI28
ag21
asg47
(lp2881
I10
aI20
ag47
asg30
(lp2882
I7
aI35
ag30
asg32
(lp2883
I3
aI26
ag32
asg19
(lp2884
I38
aI28
ag214
asg64
(lp2885
I0
aI24
ag64
assg224
(dp2886
g83
(lp2887
I13
aI10
ag224
asg71
(lp2888
I27
aI17
ag224
asg86
(lp2889
I27
aI14
ag224
asg111
(lp2890
I24
aI27
ag111
asg122
(lp2891
I12
aI18
ag122
asg19
(lp2892
I37
aI36
ag224
asg39
(lp2893
I23
aI20
ag224
asg55
(lp2894
I38
aI28
ag224
assg234
(dp2895
g9
(lp2896
I23
aI28
ag9
asg71
(lp2897
I10
aI38
ag71
asg741
(lp2898
I13
aI16
ag741
asg19
(lp2899
I17
aI36
ag19
asg35
(lp2900
I17
aI27
ag35
asg37
(lp2901
I6
aI42
ag37
asg23
(lp2902
I13
aI21
ag23
asg53
(lp2903
I6
aI28
ag53
assg244
(dp2904
g71
(lp2905
I20
aI34
ag71
asg111
(lp2906
I23
aI9
ag244
asg122
(lp2907
I20
aI23
ag122
asg19
(lp2908
I3
aI31
ag19
asg39
(lp2909
I0
aI16
ag39
asg92
(lp2910
I13
aI6
ag244
asg94
(lp2911
I23
aI17
ag244
asg55
(lp2912
I23
aI30
ag55
assg830
(dp2913
g83
(lp2914
I17
aI20
ag83
asg111
(lp2915
I29
aI6
ag830
asg30
(lp2916
I34
aI27
ag830
asg53
(lp2917
I24
aI21
ag830
asg32
(lp2918
I7
aI24
ag32
asg35
(lp2919
I34
aI7
ag830
asg37
(lp2920
I27
aI35
ag37
asg94
(lp2921
I24
aI31
ag94
assg254
(dp2922
g71
(lp2923
I26
aI38
ag71
asg45
(lp2924
I17
aI7
ag254
asg13
(lp2925
I21
aI15
ag254
asg17
(lp2926
I26
aI0
ag254
asg122
(lp2927
I24
aI31
ag122
asg35
(lp2928
I48
aI10
ag254
asg39
(lp2929
I27
aI14
ag254
asg53
(lp2930
I30
aI24
ag254
assg264
(dp2931
g59
(lp2932
I6
aI14
ag59
asg131
(lp2933
I17
aI27
ag131
asg9
(lp2934
I30
aI33
ag9
asg49
(lp2935
I9
aI7
ag264
asg45
(lp2936
I0
aI17
ag45
asg88
(lp2937
I27
aI17
ag264
asg15
(lp2938
I16
aI13
ag264
asg64
(lp2939
I12
aI45
ag64
assg274
(dp2940
g59
(lp2941
I24
aI21
ag274
asg83
(lp2942
I37
aI17
ag274
asg49
(lp2943
I23
aI20
ag274
asg11
(lp2944
I10
aI14
ag11
asg741
(lp2945
I23
aI18
ag274
asg37
(lp2946
I31
aI35
ag37
asg23
(lp2947
I17
aI31
ag23
asg25
(lp2948
I18
aI15
ag274
assg284
(dp2949
g45
(lp2950
I20
aI26
ag45
asg25
(lp2951
I10
aI16
ag25
asg111
(lp2952
I10
aI13
ag111
asg88
(lp2953
I13
aI44
ag88
asg86
(lp2954
I34
aI41
ag86
asg92
(lp2955
I27
aI24
ag284
asg64
(lp2956
I16
aI27
ag64
asg55
(lp2957
I7
aI37
ag55
assg294
(dp2958
g59
(lp2959
I34
aI14
ag294
asg9
(lp2960
I22
aI48
ag9
asg45
(lp2961
I16
aI20
ag45
asg74
(lp2962
I27
aI24
ag294
asg53
(lp2963
I27
aI13
ag294
asg88
(lp2964
I30
aI27
ag294
asg15
(lp2965
I33
aI14
ag294
asg64
(lp2966
I40
aI17
ag294
assg305
(dp2967
g9
(lp2968
I7
aI27
ag9
asg11
(lp2969
I31
aI14
ag305
asg86
(lp2970
I3
aI6
ag86
asg30
(lp2971
I10
aI17
ag30
asg32
(lp2972
I13
aI19
ag32
asg741
(lp2973
I10
aI31
ag741
asg37
(lp2974
I30
aI7
ag305
asg15
(lp2975
I33
aI20
ag305
assg315
(dp2976
g88
(lp2977
I28
aI16
ag315
asg83
(lp2978
I27
aI17
ag315
asg9
(lp2979
I17
aI31
ag9
asg30
(lp2980
I35
aI34
ag315
asg53
(lp2981
I18
aI14
ag315
asg32
(lp2982
I30
aI17
ag315
asg741
(lp2983
I20
aI17
ag315
asg35
(lp2984
I34
aI17
ag315
asg39
(lp2985
I20
aI3
ag315
asg94
(lp2986
I14
aI12
ag315
assg325
(dp2987
g71
(lp2988
I30
aI17
ag325
asg49
(lp2989
I31
aI10
ag325
asg21
(lp2990
I21
aI34
ag21
asg741
(lp2991
I28
aI21
ag325
asg19
(lp2992
I51
aI45
ag325
asg35
(lp2993
I31
aI20
ag325
asg37
(lp2994
I10
aI31
ag37
asg53
(lp2995
I16
aI20
ag53
assg335
(dp2996
g83
(lp2997
I27
aI34
ag83
asg49
(lp2998
I35
aI0
ag335
asg13
(lp2999
I10
aI6
ag335
asg47
(lp3000
I10
aI45
ag47
asg17
(lp3001
I20
aI6
ag335
asg35
(lp3002
I23
aI10
ag335
asg23
(lp3003
I24
aI9
ag335
asg94
(lp3004
I20
aI3
ag335
assg345
(dp3005
g59
(lp3006
I43
aI14
ag345
asg131
(lp3007
I31
aI23
ag345
asg11
(lp3008
I23
aI13
ag345
asg111
(lp3009
I24
aI16
ag345
asg122
(lp3010
I27
aI24
ag345
asg32
(lp3011
I14
aI17
ag32
asg88
(lp3012
I23
aI34
ag88
asg39
(lp3013
I26
aI31
ag39
asg74
(lp3014
I23
aI20
ag345
asssg2
(g4
S'\xda\x07\x00\x00\x00\x00\x00\x00'
tRp3015
(dp3016
g7
(dp3017
g11
(lp3018
I10
aI14
ag11
asg13
(lp3019
I14
aI40
ag13
asg17
(lp3020
I24
aI10
ag7
asg45
(lp3021
I24
aI21
ag7
asg19
(lp3022
I3
aI31
ag19
asg23
(lp3023
I27
aI24
ag7
asg25
(lp3024
I38
aI14
ag7
asg64
(lp3025
I3
aI21
ag64
assg27
(dp3026
g83
(lp3027
I29
aI17
ag27
asg13
(lp3028
I0
aI16
ag13
asg17
(lp3029
I27
aI34
ag17
asg30
(lp3030
I14
aI41
ag30
asg32
(lp3031
I23
aI31
ag32
asg25
(lp3032
I14
aI17
ag25
asg86
(lp3033
I10
aI13
ag86
asg92
(lp3034
I22
aI23
ag92
assg42
(dp3035
g9
(lp3036
I3
aI34
ag9
asg13
(lp3037
I6
aI23
ag13
asg47
(lp3038
I10
aI31
ag47
asg122
(lp3039
I7
aI20
ag122
asg23
(lp3040
I19
aI12
ag42
asg39
(lp3041
I13
aI37
ag39
asg15
(lp3042
I7
aI20
ag15
asg53
(lp3043
I23
aI20
ag42
assg57
(dp3044
g9
(lp3045
I14
aI17
ag9
asg21
(lp3046
I31
aI10
ag57
asg122
(lp3047
I39
aI32
ag57
asg19
(lp3048
I21
aI48
ag19
asg23
(lp3049
I41
aI7
ag57
asg39
(lp3050
I26
aI21
ag57
asg15
(lp3051
I27
aI21
ag57
asg53
(lp3052
I16
aI14
ag57
assg69
(dp3053
g131
(lp3054
I32
aI35
ag131
asg71
(lp3055
I20
aI13
ag69
asg49
(lp3056
I44
aI6
ag69
asg13
(lp3057
I20
aI24
ag13
asg30
(lp3058
I24
aI45
ag30
asg32
(lp3059
I20
aI23
ag32
asg19
(lp3060
I7
aI3
ag69
asg74
(lp3061
I37
aI25
ag69
assg81
(dp3062
g9
(lp3063
I30
aI34
ag9
asg11
(lp3064
I14
aI22
ag11
asg25
(lp3065
I31
aI49
ag25
asg15
(lp3066
I21
aI24
ag15
asg86
(lp3067
I19
aI17
ag81
asg39
(lp3068
I15
aI10
ag81
asg92
(lp3069
I21
aI27
ag92
asg55
(lp3070
I34
aI20
ag81
assg96
(dp3071
g71
(lp3072
I29
aI20
ag96
asg11
(lp3073
I6
aI10
ag11
asg122
(lp3074
I26
aI10
ag96
asg30
(lp3075
I28
aI14
ag96
asg741
(lp3076
I30
aI27
ag96
asg19
(lp3077
I0
aI9
ag19
asg39
(lp3078
I9
aI10
ag39
asg25
(lp3079
I38
aI7
ag96
assg106
(dp3080
g59
(lp3081
I49
aI29
ag106
asg49
(lp3082
I33
aI36
ag49
asg111
(lp3083
I14
aI59
ag111
asg32
(lp3084
I20
aI24
ag32
asg741
(lp3085
I24
aI23
ag106
asg35
(lp3086
I31
aI14
ag106
asg37
(lp3087
I13
aI27
ag37
asg55
(lp3088
I28
aI33
ag55
assg117
(dp3089
g9
(lp3090
I30
aI24
ag117
asg11
(lp3091
I26
aI10
ag117
asg86
(lp3092
I24
aI17
ag117
asg122
(lp3093
I13
aI7
ag117
asg25
(lp3094
I37
aI34
ag117
asg88
(lp3095
I31
aI17
ag117
asg15
(lp3096
I17
aI10
ag117
asg92
(lp3097
I10
aI13
ag92
assg129
(dp3098
g131
(lp3099
I31
aI38
ag131
asg83
(lp3100
I10
aI29
ag83
asg45
(lp3101
I20
aI33
ag45
asg21
(lp3102
I31
aI18
ag129
asg17
(lp3103
I28
aI20
ag129
asg13
(lp3104
I17
aI3
ag129
asg74
(lp3105
I31
aI7
ag129
asg94
(lp3106
I24
aI20
ag129
assg142
(dp3107
g59
(lp3108
I23
aI20
ag142
asg88
(lp3109
I39
aI23
ag142
asg49
(lp3110
I16
aI14
ag142
asg11
(lp3111
I17
aI33
ag11
asg741
(lp3112
I24
aI31
ag741
asg35
(lp3113
I33
aI3
ag142
asg37
(lp3114
I26
aI31
ag37
asg55
(lp3115
I35
aI27
ag142
assg154
(dp3116
g131
(lp3117
I37
aI19
ag154
asg92
(lp3118
I11
aI19
ag92
asg111
(lp3119
I38
aI13
ag154
asg741
(lp3120
I31
aI17
ag154
asg88
(lp3121
I20
aI26
ag88
asg37
(lp3122
I28
aI30
ag37
asg74
(lp3123
I16
aI19
ag74
asg94
(lp3124
I6
aI17
ag94
assg164
(dp3125
g71
(lp3126
I14
aI9
ag164
asg49
(lp3127
I31
aI13
ag164
asg21
(lp3128
I16
aI14
ag164
asg47
(lp3129
I24
aI27
ag47
asg15
(lp3130
I13
aI23
ag15
asg35
(lp3131
I34
aI19
ag164
asg86
(lp3132
I17
aI30
ag86
asg92
(lp3133
I20
aI10
ag164
assg174
(dp3134
g131
(lp3135
I27
aI30
ag131
asg83
(lp3136
I27
aI34
ag83
asg9
(lp3137
I27
aI30
ag9
asg13
(lp3138
I20
aI27
ag13
asg17
(lp3139
I35
aI19
ag174
asg94
(lp3140
I17
aI35
ag94
asg74
(lp3141
I33
aI30
ag174
asg64
(lp3142
I35
aI41
ag64
assg184
(dp3143
g71
(lp3144
I28
aI18
ag184
asg11
(lp3145
I38
aI7
ag184
asg122
(lp3146
I38
aI24
ag184
asg32
(lp3147
I21
aI28
ag32
asg19
(lp3148
I31
aI27
ag184
asg37
(lp3149
I31
aI28
ag184
asg39
(lp3150
I23
aI20
ag184
asg25
(lp3151
I38
aI30
ag184
assg305
(dp3152
g11
(lp3153
I10
aI15
ag11
asg13
(lp3154
I19
aI22
ag13
asg17
(lp3155
I14
aI12
ag305
asg30
(lp3156
I3
aI34
ag30
asg32
(lp3157
I14
aI38
ag32
asg86
(lp3158
I13
aI6
ag305
asg92
(lp3159
I16
aI19
ag92
asg94
(lp3160
I26
aI36
ag94
assg194
(dp3161
g59
(lp3162
I24
aI42
ag59
asg9
(lp3163
I41
aI36
ag194
asg49
(lp3164
I16
aI6
ag194
asg21
(lp3165
I31
aI14
ag194
asg47
(lp3166
I18
aI34
ag47
asg53
(lp3167
I31
aI6
ag194
asg23
(lp3168
I22
aI10
ag194
asg64
(lp3169
I7
aI41
ag64
asg55
(lp3170
I27
aI20
ag194
assg204
(dp3171
g131
(lp3172
I31
aI26
ag204
asg71
(lp3173
I27
aI13
ag204
asg17
(lp3174
I19
aI14
ag204
asg30
(lp3175
I7
aI36
ag30
asg32
(lp3176
I38
aI34
ag204
asg19
(lp3177
I14
aI21
ag19
asg35
(lp3178
I35
aI24
ag204
asg74
(lp3179
I14
aI17
ag74
assg214
(dp3180
g9
(lp3181
I6
aI31
ag9
asg49
(lp3182
I18
aI17
ag214
asg86
(lp3183
I17
aI14
ag214
asg47
(lp3184
I24
aI28
ag47
asg17
(lp3185
I20
aI23
ag17
asg35
(lp3186
I38
aI15
ag214
asg21
(lp3187
I31
aI16
ag214
asg92
(lp3188
I13
aI38
ag92
assg234
(dp3189
g59
(lp3190
I13
aI27
ag59
asg21
(lp3191
I20
aI10
ag234
asg47
(lp3192
I17
aI34
ag47
asg35
(lp3193
I20
aI3
ag234
asg23
(lp3194
I13
aI17
ag23
asg74
(lp3195
I30
aI16
ag234
asg53
(lp3196
I25
aI17
ag234
asg55
(lp3197
I20
aI17
ag234
assg244
(dp3198
g59
(lp3199
I14
aI16
ag59
asg21
(lp3200
I24
aI23
ag244
asg47
(lp3201
I10
aI20
ag47
asg122
(lp3202
I23
aI20
ag244
asg30
(lp3203
I34
aI14
ag244
asg32
(lp3204
I20
aI26
ag32
asg39
(lp3205
I10
aI20
ag39
asg92
(lp3206
I9
aI41
ag92
assg830
(dp3207
g59
(lp3208
I35
aI31
ag830
asg83
(lp3209
I20
aI0
ag830
asg45
(lp3210
I13
aI27
ag45
asg94
(lp3211
I34
aI17
ag830
asg37
(lp3212
I34
aI24
ag830
asg39
(lp3213
I28
aI34
ag39
asg64
(lp3214
I10
aI34
ag64
asg55
(lp3215
I23
aI29
ag55
assg254
(dp3216
g71
(lp3217
I28
aI24
ag254
asg11
(lp3218
I20
aI23
ag11
asg13
(lp3219
I10
aI3
ag254
asg17
(lp3220
I28
aI26
ag254
asg64
(lp3221
I45
aI17
ag254
asg45
(lp3222
I45
aI7
ag254
asg25
(lp3223
I34
aI7
ag254
asg53
(lp3224
I34
aI16
ag254
asg92
(lp3225
I31
aI25
ag254
assg264
(dp3226
g131
(lp3227
I28
aI59
ag131
asg71
(lp3228
I13
aI17
ag71
asg45
(lp3229
I13
aI7
ag264
asg741
(lp3230
I27
aI30
ag741
asg19
(lp3231
I16
aI13
ag264
asg37
(lp3232
I24
aI27
ag37
asg15
(lp3233
I16
aI17
ag15
asg64
(lp3234
I14
aI17
ag64
assg274
(dp3235
g131
(lp3236
I3
aI28
ag131
asg83
(lp3237
I3
aI30
ag83
asg86
(lp3238
I24
aI20
ag274
asg111
(lp3239
I38
aI31
ag274
asg741
(lp3240
I31
aI24
ag274
asg88
(lp3241
I24
aI17
ag274
asg37
(lp3242
I31
aI28
ag274
asg74
(lp3243
I17
aI20
ag74
assg284
(dp3244
g83
(lp3245
I34
aI14
ag284
asg111
(lp3246
I10
aI31
ag111
asg94
(lp3247
I42
aI20
ag284
asg88
(lp3248
I10
aI6
ag284
asg23
(lp3249
I31
aI13
ag284
asg39
(lp3250
I7
aI30
ag39
asg25
(lp3251
I13
aI10
ag284
asg53
(lp3252
I31
aI10
ag284
asg55
(lp3253
I21
aI14
ag284
assg294
(dp3254
g71
(lp3255
I14
aI24
ag71
asg45
(lp3256
I13
aI14
ag45
asg47
(lp3257
I31
aI17
ag294
asg741
(lp3258
I34
aI24
ag294
asg19
(lp3259
I16
aI21
ag19
asg37
(lp3260
I26
aI24
ag294
asg74
(lp3261
I12
aI17
ag74
asg64
(lp3262
I27
aI17
ag294
assg224
(dp3263
g86
(lp3264
I28
aI10
ag224
asg47
(lp3265
I15
aI9
ag224
asg111
(lp3266
I35
aI3
ag224
asg122
(lp3267
I23
aI7
ag224
asg30
(lp3268
I26
aI39
ag30
asg32
(lp3269
I24
aI19
ag224
asg21
(lp3270
I27
aI3
ag224
asg39
(lp3271
I31
aI24
ag224
assg315
(dp3272
g59
(lp3273
I19
aI9
ag315
asg83
(lp3274
I23
aI20
ag315
asg45
(lp3275
I35
aI38
ag45
asg122
(lp3276
I23
aI17
ag315
asg94
(lp3277
I34
aI24
ag315
asg32
(lp3278
I16
aI17
ag32
asg741
(lp3279
I30
aI17
ag315
asg64
(lp3280
I38
aI14
ag315
asg55
(lp3281
I14
aI36
ag55
assg325
(dp3282
g88
(lp3283
I43
aI13
ag325
asg9
(lp3284
I30
aI20
ag325
asg49
(lp3285
I6
aI19
ag49
asg111
(lp3286
I24
aI23
ag325
asg45
(lp3287
I27
aI26
ag325
asg35
(lp3288
I18
aI36
ag35
asg15
(lp3289
I35
aI38
ag15
asg53
(lp3290
I6
aI27
ag53
assg335
(dp3291
g131
(lp3292
I24
aI27
ag131
asg35
(lp3293
I40
aI21
ag335
asg9
(lp3294
I22
aI25
ag9
asg49
(lp3295
I23
aI20
ag335
asg111
(lp3296
I17
aI9
ag335
asg88
(lp3297
I24
aI16
ag335
asg23
(lp3298
I38
aI7
ag335
asg15
(lp3299
I0
aI21
ag15
assg345
(dp3300
g59
(lp3301
I31
aI0
ag345
asg83
(lp3302
I33
aI25
ag345
asg111
(lp3303
I13
aI28
ag111
asg30
(lp3304
I20
aI23
ag30
asg53
(lp3305
I34
aI7
ag345
asg88
(lp3306
I35
aI14
ag345
asg23
(lp3307
I41
aI10
ag345
asg94
(lp3308
I38
aI13
ag345
asssg2
(g4
S'\xdb\x07\x00\x00\x00\x00\x00\x00'
tRp3309
(dp3310
g7
(dp3311
g9
(lp3312
I20
aI42
ag9
asg111
(lp3313
I21
aI27
ag111
asg17
(lp3314
I23
aI26
ag17
asg19
(lp3315
I27
aI33
ag19
asg88
(lp3316
I32
aI35
ag88
asg13
(lp3317
I13
aI17
ag13
asg23
(lp3318
I34
aI10
ag7
asg15
(lp3319
I20
aI24
ag15
assg27
(dp3320
g131
(lp3321
I10
aI26
ag131
asg74
(lp3322
I20
aI9
ag27
asg111
(lp3323
I34
aI14
ag27
asg30
(lp3324
I24
aI38
ag30
asg32
(lp3325
I19
aI17
ag27
asg741
(lp3326
I13
aI23
ag741
asg88
(lp3327
I15
aI18
ag88
asg25
(lp3328
I35
aI8
ag27
assg42
(dp3329
g83
(lp3330
I3
aI30
ag83
asg71
(lp3331
I21
aI24
ag71
asg15
(lp3332
I48
aI16
ag42
asg47
(lp3333
I23
aI31
ag47
asg9
(lp3334
I27
aI30
ag9
asg19
(lp3335
I23
aI30
ag19
asg74
(lp3336
I33
aI20
ag42
asg94
(lp3337
I16
aI10
ag42
assg57
(dp3338
g131
(lp3339
I35
aI31
ag57
asg83
(lp3340
I23
aI17
ag57
asg71
(lp3341
I24
aI14
ag57
asg21
(lp3342
I31
aI17
ag57
asg9
(lp3343
I23
aI26
ag9
asg19
(lp3344
I14
aI25
ag19
asg15
(lp3345
I45
aI24
ag57
asg94
(lp3346
I41
aI14
ag57
assg69
(dp3347
g59
(lp3348
I48
aI3
ag69
asg71
(lp3349
I34
aI28
ag69
asg13
(lp3350
I24
aI13
ag69
asg47
(lp3351
I16
aI23
ag47
asg19
(lp3352
I15
aI27
ag19
asg21
(lp3353
I49
aI35
ag69
asg53
(lp3354
I19
aI25
ag53
asg55
(lp3355
I38
aI10
ag69
assg81
(dp3356
g25
(lp3357
I23
aI20
ag81
asg741
(lp3358
I19
aI20
ag741
asg86
(lp3359
I23
aI20
ag81
asg37
(lp3360
I27
aI17
ag81
asg23
(lp3361
I23
aI16
ag81
asg39
(lp3362
I16
aI24
ag39
asg92
(lp3363
I17
aI24
ag92
asg53
(lp3364
I8
aI13
ag53
assg96
(dp3365
g59
(lp3366
I37
aI10
ag96
asg45
(lp3367
I27
aI24
ag96
asg30
(lp3368
I16
aI37
ag30
asg64
(lp3369
I14
aI29
ag64
asg11
(lp3370
I24
aI6
ag96
asg25
(lp3371
I28
aI24
ag96
asg94
(lp3372
I32
aI3
ag96
asg55
(lp3373
I27
aI21
ag96
assg106
(dp3374
g59
(lp3375
I3
aI7
ag59
asg111
(lp3376
I20
aI23
ag111
asg17
(lp3377
I10
aI45
ag17
asg122
(lp3378
I24
aI22
ag106
asg30
(lp3379
I23
aI41
ag30
asg32
(lp3380
I17
aI13
ag106
asg13
(lp3381
I13
aI10
ag106
asg92
(lp3382
I29
aI23
ag106
asg55
(lp3383
I24
aI29
ag55
assg117
(dp3384
g86
(lp3385
I20
aI14
ag117
asg122
(lp3386
I31
aI24
ag117
asg32
(lp3387
I34
aI17
ag117
asg741
(lp3388
I20
aI13
ag117
asg37
(lp3389
I24
aI10
ag117
asg23
(lp3390
I30
aI27
ag117
asg92
(lp3391
I35
aI7
ag117
asg53
(lp3392
I16
aI6
ag117
assg129
(dp3393
g131
(lp3394
I10
aI17
ag131
asg49
(lp3395
I28
aI16
ag129
asg74
(lp3396
I10
aI23
ag74
asg47
(lp3397
I24
aI2
ag129
asg11
(lp3398
I20
aI17
ag129
asg45
(lp3399
I31
aI14
ag129
asg19
(lp3400
I35
aI38
ag19
asg35
(lp3401
I25
aI36
ag35
asg25
(lp3402
I27
aI24
ag129
assg142
(dp3403
g59
(lp3404
I0
aI28
ag59
asg86
(lp3405
I24
aI17
ag142
asg17
(lp3406
I27
aI28
ag17
asg30
(lp3407
I19
aI31
ag30
asg32
(lp3408
I34
aI24
ag142
asg88
(lp3409
I24
aI38
ag88
asg13
(lp3410
I25
aI20
ag142
asg55
(lp3411
I26
aI38
ag55
assg154
(dp3412
g9
(lp3413
I17
aI22
ag9
asg122
(lp3414
I17
aI24
ag122
asg741
(lp3415
I7
aI41
ag741
asg88
(lp3416
I17
aI14
ag154
asg37
(lp3417
I27
aI10
ag154
asg39
(lp3418
I26
aI13
ag154
asg15
(lp3419
I23
aI17
ag154
asg94
(lp3420
I23
aI17
ag154
assg164
(dp3421
g13
(lp3422
I30
aI13
ag164
asg47
(lp3423
I45
aI16
ag164
asg17
(lp3424
I45
aI28
ag164
asg741
(lp3425
I40
aI33
ag164
asg21
(lp3426
I45
aI17
ag164
asg37
(lp3427
I62
aI7
ag164
asg15
(lp3428
I27
aI16
ag164
asg64
(lp3429
I49
aI24
ag164
assg174
(dp3430
g131
(lp3431
I7
aI20
ag131
asg49
(lp3432
I34
aI7
ag174
asg74
(lp3433
I18
aI16
ag174
asg17
(lp3434
I30
aI34
ag17
asg11
(lp3435
I20
aI19
ag174
asg35
(lp3436
I23
aI13
ag174
asg25
(lp3437
I44
aI7
ag174
asg64
(lp3438
I34
aI37
ag64
assg184
(dp3439
g59
(lp3440
I34
aI3
ag184
asg45
(lp3441
I20
aI16
ag184
asg32
(lp3442
I30
aI21
ag184
asg11
(lp3443
I27
aI24
ag184
asg88
(lp3444
I45
aI10
ag184
asg37
(lp3445
I31
aI24
ag184
asg39
(lp3446
I23
aI20
ag184
asg25
(lp3447
I49
aI21
ag184
asg64
(lp3448
I17
aI21
ag64
asg55
(lp3449
I35
aI21
ag184
assg305
(dp3450
g131
(lp3451
I31
aI24
ag305
asg83
(lp3452
I17
aI23
ag83
asg11
(lp3453
I23
aI30
ag11
asg111
(lp3454
I38
aI35
ag305
asg30
(lp3455
I34
aI31
ag305
asg32
(lp3456
I11
aI27
ag32
asg88
(lp3457
I40
aI14
ag305
asg74
(lp3458
I23
aI0
ag305
assg194
(dp3459
g131
(lp3460
I31
aI14
ag194
asg49
(lp3461
I30
aI13
ag194
asg47
(lp3462
I28
aI30
ag47
asg122
(lp3463
I12
aI34
ag122
asg23
(lp3464
I13
aI10
ag194
asg39
(lp3465
I22
aI17
ag194
asg74
(lp3466
I17
aI23
ag74
asg53
(lp3467
I17
aI19
ag53
assg204
(dp3468
g59
(lp3469
I3
aI10
ag59
asg71
(lp3470
I39
aI10
ag204
asg21
(lp3471
I34
aI29
ag204
asg47
(lp3472
I30
aI12
ag204
asg17
(lp3473
I37
aI13
ag204
asg19
(lp3474
I17
aI27
ag19
asg35
(lp3475
I14
aI38
ag35
asg55
(lp3476
I31
aI20
ag204
assg214
(dp3477
g9
(lp3478
I26
aI20
ag214
asg45
(lp3479
I15
aI31
ag45
asg13
(lp3480
I18
aI24
ag13
asg47
(lp3481
I16
aI13
ag214
asg17
(lp3482
I20
aI27
ag17
asg741
(lp3483
I9
aI37
ag741
asg21
(lp3484
I19
aI38
ag21
asg37
(lp3485
I24
aI17
ag214
assg234
(dp3486
g131
(lp3487
I13
aI31
ag131
asg9
(lp3488
I31
aI21
ag234
asg122
(lp3489
I13
aI20
ag122
asg35
(lp3490
I7
aI24
ag35
asg23
(lp3491
I20
aI23
ag23
asg39
(lp3492
I7
aI37
ag39
asg74
(lp3493
I10
aI17
ag74
asg53
(lp3494
I27
aI34
ag53
assg244
(dp3495
g83
(lp3496
I13
aI31
ag83
asg11
(lp3497
I17
aI16
ag244
asg122
(lp3498
I17
aI27
ag122
asg49
(lp3499
I12
aI13
ag49
asg35
(lp3500
I6
aI3
ag244
asg39
(lp3501
I10
aI24
ag39
asg92
(lp3502
I9
aI13
ag92
asg94
(lp3503
I14
aI10
ag244
assg830
(dp3504
g83
(lp3505
I22
aI23
ag83
asg86
(lp3506
I30
aI12
ag830
asg47
(lp3507
I17
aI10
ag830
asg111
(lp3508
I20
aI25
ag111
asg122
(lp3509
I31
aI10
ag830
asg21
(lp3510
I13
aI28
ag21
asg37
(lp3511
I34
aI7
ag830
asg92
(lp3512
I17
aI10
ag830
asg94
(lp3513
I24
aI14
ag830
assg254
(dp3514
g17
(lp3515
I45
aI41
ag254
asg71
(lp3516
I45
aI7
ag254
asg49
(lp3517
I24
aI3
ag254
asg13
(lp3518
I35
aI21
ag254
asg9
(lp3519
I42
aI34
ag254
asg111
(lp3520
I46
aI16
ag254
asg88
(lp3521
I49
aI23
ag254
asg15
(lp3522
I35
aI26
ag254
asg64
(lp3523
I20
aI37
ag64
assg264
(dp3524
g131
(lp3525
I13
aI20
ag131
asg71
(lp3526
I26
aI33
ag71
asg45
(lp3527
I24
aI27
ag45
asg30
(lp3528
I27
aI34
ag30
asg53
(lp3529
I11
aI19
ag53
asg32
(lp3530
I19
aI34
ag32
asg23
(lp3531
I22
aI21
ag264
asg64
(lp3532
I28
aI14
ag264
assg274
(dp3533
g83
(lp3534
I16
aI14
ag274
asg9
(lp3535
I10
aI23
ag9
asg122
(lp3536
I20
aI30
ag122
asg741
(lp3537
I13
aI20
ag741
asg37
(lp3538
I19
aI13
ag274
asg39
(lp3539
I12
aI7
ag274
asg15
(lp3540
I41
aI14
ag274
asg55
(lp3541
I14
aI38
ag55
assg284
(dp3542
g71
(lp3543
I22
aI17
ag284
asg11
(lp3544
I3
aI31
ag11
asg25
(lp3545
I7
aI41
ag25
asg111
(lp3546
I13
aI16
ag111
asg19
(lp3547
I19
aI14
ag284
asg88
(lp3548
I10
aI17
ag88
asg92
(lp3549
I9
aI13
ag92
asg55
(lp3550
I23
aI20
ag284
assg294
(dp3551
g45
(lp3552
I34
aI7
ag294
asg13
(lp3553
I24
aI30
ag13
asg30
(lp3554
I20
aI38
ag30
asg53
(lp3555
I23
aI24
ag53
asg32
(lp3556
I45
aI19
ag294
asg23
(lp3557
I17
aI21
ag23
asg74
(lp3558
I34
aI10
ag294
asg64
(lp3559
I16
aI29
ag64
assg224
(dp3560
g83
(lp3561
I38
aI17
ag224
asg49
(lp3562
I27
aI0
ag224
asg86
(lp3563
I14
aI3
ag224
asg122
(lp3564
I35
aI7
ag224
asg30
(lp3565
I25
aI17
ag224
asg35
(lp3566
I24
aI0
ag224
asg39
(lp3567
I20
aI23
ag39
asg94
(lp3568
I17
aI13
ag224
assg315
(dp3569
g59
(lp3570
I24
aI28
ag59
asg83
(lp3571
I27
aI13
ag315
asg86
(lp3572
I19
aI27
ag86
asg47
(lp3573
I7
aI31
ag47
asg741
(lp3574
I19
aI16
ag315
asg21
(lp3575
I19
aI27
ag21
asg92
(lp3576
I20
aI23
ag92
asg94
(lp3577
I3
aI17
ag94
assg325
(dp3578
g49
(lp3579
I19
aI13
ag325
asg21
(lp3580
I28
aI21
ag325
asg53
(lp3581
I21
aI19
ag325
asg45
(lp3582
I19
aI13
ag325
asg35
(lp3583
I23
aI20
ag325
asg86
(lp3584
I20
aI17
ag325
asg92
(lp3585
I20
aI32
ag92
asg64
(lp3586
I27
aI31
ag64
assg335
(dp3587
g9
(lp3588
I36
aI32
ag335
asg45
(lp3589
I24
aI27
ag45
asg86
(lp3590
I20
aI10
ag335
asg49
(lp3591
I26
aI0
ag335
asg35
(lp3592
I33
aI17
ag335
asg23
(lp3593
I23
aI7
ag335
asg15
(lp3594
I48
aI3
ag335
asg64
(lp3595
I17
aI20
ag64
asg92
(lp3596
I20
aI3
ag335
assg345
(dp3597
g59
(lp3598
I20
aI17
ag345
asg71
(lp3599
I24
aI17
ag345
asg11
(lp3600
I26
aI16
ag345
asg111
(lp3601
I17
aI24
ag111
asg19
(lp3602
I38
aI45
ag19
asg88
(lp3603
I13
aI16
ag88
asg39
(lp3604
I34
aI14
ag345
asg25
(lp3605
I37
aI10
ag345
asssg2
(g4
S'\xdc\x07\x00\x00\x00\x00\x00\x00'
tRp3606
(dp3607
g7
(dp3608
g83
(lp3609
I30
aI7
ag7
asg13
(lp3610
I21
aI14
ag7
asg17
(lp3611
I34
aI24
ag7
asg53
(lp3612
I24
aI13
ag7
asg19
(lp3613
I37
aI34
ag7
asg23
(lp3614
I21
aI14
ag7
asg15
(lp3615
I17
aI36
ag15
asg94
(lp3616
I26
aI23
ag7
assg27
(dp3617
g83
(lp3618
I3
aI37
ag83
asg49
(lp3619
I17
aI14
ag27
asg111
(lp3620
I35
aI13
ag27
asg30
(lp3621
I16
aI23
ag30
asg32
(lp3622
I20
aI23
ag32
asg35
(lp3623
I24
aI21
ag27
asg25
(lp3624
I24
aI10
ag27
asg94
(lp3625
I24
aI3
ag27
assg42
(dp3626
g35
(lp3627
I12
aI16
ag35
asg9
(lp3628
I35
aI27
ag42
asg45
(lp3629
I14
aI19
ag45
asg47
(lp3630
I30
aI20
ag42
asg111
(lp3631
I17
aI6
ag42
asg88
(lp3632
I14
aI36
ag88
asg15
(lp3633
I21
aI27
ag15
asg64
(lp3634
I7
aI36
ag64
assg57
(dp3635
g35
(lp3636
I30
aI28
ag57
asg9
(lp3637
I23
aI13
ag57
asg45
(lp3638
I19
aI13
ag57
asg21
(lp3639
I30
aI28
ag57
asg111
(lp3640
I23
aI20
ag57
asg53
(lp3641
I24
aI28
ag53
asg88
(lp3642
I27
aI21
ag57
asg23
(lp3643
I23
aI19
ag57
asg15
(lp3644
I17
aI22
ag15
asg64
(lp3645
I34
aI0
ag57
assg69
(dp3646
g71
(lp3647
I13
aI20
ag71
asg49
(lp3648
I27
aI23
ag69
asg13
(lp3649
I24
aI26
ag13
asg47
(lp3650
I18
aI31
ag47
asg741
(lp3651
I31
aI34
ag741
asg19
(lp3652
I20
aI24
ag19
asg35
(lp3653
I28
aI24
ag69
asg37
(lp3654
I33
aI35
ag37
assg81
(dp3655
g11
(lp3656
I13
aI17
ag11
asg86
(lp3657
I34
aI27
ag81
asg111
(lp3658
I34
aI10
ag81
asg45
(lp3659
I19
aI20
ag45
asg88
(lp3660
I23
aI31
ag88
asg39
(lp3661
I23
aI17
ag81
asg92
(lp3662
I17
aI24
ag92
asg64
(lp3663
I31
aI13
ag81
assg96
(dp3664
g11
(lp3665
I9
aI30
ag11
asg30
(lp3666
I19
aI49
ag30
asg741
(lp3667
I17
aI23
ag741
asg37
(lp3668
I35
aI9
ag96
asg23
(lp3669
I7
aI6
ag96
asg25
(lp3670
I48
aI28
ag96
asg53
(lp3671
I0
aI34
ag53
asg55
(lp3672
I17
aI27
ag55
assg106
(dp3673
g59
(lp3674
I38
aI3
ag106
asg9
(lp3675
I34
aI14
ag106
asg15
(lp3676
I31
aI23
ag106
asg111
(lp3677
I37
aI6
ag106
asg741
(lp3678
I25
aI31
ag741
asg86
(lp3679
I34
aI12
ag106
asg39
(lp3680
I35
aI38
ag39
asg92
(lp3681
I31
aI19
ag106
asg55
(lp3682
I30
aI23
ag106
assg117
(dp3683
g45
(lp3684
I31
aI29
ag117
asg86
(lp3685
I23
aI16
ag117
asg111
(lp3686
I55
aI20
ag117
asg122
(lp3687
I44
aI13
ag117
asg30
(lp3688
I31
aI30
ag117
asg88
(lp3689
I17
aI34
ag88
asg37
(lp3690
I24
aI9
ag117
asg92
(lp3691
I20
aI23
ag92
asg64
(lp3692
I33
aI14
ag117
assg129
(dp3693
g131
(lp3694
I42
aI7
ag129
asg9
(lp3695
I52
aI27
ag129
asg45
(lp3696
I17
aI24
ag45
asg86
(lp3697
I41
aI27
ag129
asg19
(lp3698
I38
aI10
ag129
asg74
(lp3699
I27
aI23
ag129
asg15
(lp3700
I41
aI34
ag129
asg92
(lp3701
I20
aI24
ag92
assg142
(dp3702
g59
(lp3703
I15
aI0
ag142
asg9
(lp3704
I17
aI38
ag9
asg92
(lp3705
I34
aI31
ag142
asg88
(lp3706
I13
aI26
ag88
asg86
(lp3707
I17
aI20
ag86
asg15
(lp3708
I32
aI42
ag15
asg94
(lp3709
I26
aI23
ag142
asg55
(lp3710
I14
aI22
ag55
assg154
(dp3711
g13
(lp3712
I20
aI51
ag13
asg17
(lp3713
I44
aI41
ag154
asg30
(lp3714
I13
aI34
ag30
asg32
(lp3715
I14
aI10
ag154
asg741
(lp3716
I10
aI24
ag741
asg37
(lp3717
I13
aI19
ag37
asg92
(lp3718
I26
aI23
ag154
asg94
(lp3719
I38
aI20
ag154
assg164
(dp3720
g59
(lp3721
I24
aI27
ag59
asg131
(lp3722
I28
aI13
ag164
asg15
(lp3723
I41
aI0
ag164
asg47
(lp3724
I31
aI27
ag164
asg21
(lp3725
I38
aI44
ag21
asg74
(lp3726
I32
aI40
ag74
asg53
(lp3727
I21
aI31
ag53
asg55
(lp3728
I31
aI24
ag164
assg174
(dp3729
g131
(lp3730
I38
aI33
ag174
asg9
(lp3731
I31
aI34
ag9
asg13
(lp3732
I18
aI34
ag13
asg15
(lp3733
I16
aI10
ag174
asg86
(lp3734
I23
aI20
ag174
asg74
(lp3735
I31
aI38
ag74
asg64
(lp3736
I24
aI29
ag64
asg92
(lp3737
I27
aI24
ag174
assg184
(dp3738
g11
(lp3739
I28
aI0
ag184
asg32
(lp3740
I29
aI26
ag184
asg741
(lp3741
I41
aI28
ag184
asg88
(lp3742
I31
aI21
ag184
asg37
(lp3743
I59
aI24
ag184
asg23
(lp3744
I18
aI20
ag23
asg39
(lp3745
I13
aI28
ag39
asg25
(lp3746
I37
aI31
ag184
asg53
(lp3747
I34
aI41
ag53
assg194
(dp3748
g71
(lp3749
I30
aI20
ag194
asg45
(lp3750
I27
aI7
ag194
asg30
(lp3751
I24
aI23
ag194
asg32
(lp3752
I28
aI7
ag194
asg49
(lp3753
I20
aI13
ag194
asg19
(lp3754
I14
aI12
ag194
asg23
(lp3755
I58
aI0
ag194
asg53
(lp3756
I42
aI13
ag194
assg204
(dp3757
g71
(lp3758
I28
aI10
ag204
asg49
(lp3759
I23
aI6
ag204
asg21
(lp3760
I23
aI22
ag204
asg17
(lp3761
I13
aI7
ag204
asg741
(lp3762
I6
aI13
ag741
asg19
(lp3763
I13
aI21
ag19
asg35
(lp3764
I17
aI23
ag35
asg37
(lp3765
I41
aI21
ag204
assg305
(dp3766
g59
(lp3767
I35
aI17
ag305
asg83
(lp3768
I34
aI35
ag83
asg11
(lp3769
I19
aI14
ag305
asg30
(lp3770
I28
aI52
ag30
asg32
(lp3771
I28
aI9
ag305
asg49
(lp3772
I12
aI15
ag49
asg35
(lp3773
I17
aI50
ag35
asg94
(lp3774
I34
aI18
ag305
assg234
(dp3775
g71
(lp3776
I22
aI36
ag71
asg30
(lp3777
I7
aI45
ag30
asg32
(lp3778
I13
aI27
ag32
asg19
(lp3779
I20
aI30
ag19
asg35
(lp3780
I19
aI13
ag234
asg23
(lp3781
I17
aI3
ag234
asg74
(lp3782
I31
aI28
ag234
asg53
(lp3783
I16
aI13
ag234
assg244
(dp3784
g59
(lp3785
I30
aI7
ag244
asg131
(lp3786
I16
aI17
ag131
asg25
(lp3787
I14
aI24
ag25
asg122
(lp3788
I34
aI24
ag244
asg74
(lp3789
I21
aI38
ag74
asg39
(lp3790
I15
aI25
ag39
asg92
(lp3791
I20
aI14
ag244
asg55
(lp3792
I7
aI6
ag244
assg214
(dp3793
g59
(lp3794
I38
aI10
ag214
asg131
(lp3795
I21
aI23
ag131
asg9
(lp3796
I28
aI35
ag9
asg49
(lp3797
I13
aI28
ag49
asg21
(lp3798
I16
aI10
ag214
asg47
(lp3799
I23
aI24
ag47
asg74
(lp3800
I22
aI24
ag74
asg55
(lp3801
I34
aI24
ag214
assg830
(dp3802
g83
(lp3803
I38
aI14
ag830
asg71
(lp3804
I6
aI23
ag71
asg11
(lp3805
I30
aI10
ag830
asg122
(lp3806
I19
aI13
ag830
asg19
(lp3807
I24
aI42
ag19
asg37
(lp3808
I29
aI17
ag830
asg39
(lp3809
I43
aI13
ag830
asg25
(lp3810
I21
aI9
ag830
asg94
(lp3811
I43
aI37
ag830
assg254
(dp3812
g83
(lp3813
I55
aI7
ag254
asg71
(lp3814
I24
aI10
ag254
asg13
(lp3815
I23
aI10
ag254
asg9
(lp3816
I28
aI27
ag254
asg17
(lp3817
I27
aI20
ag254
asg94
(lp3818
I24
aI15
ag254
asg23
(lp3819
I31
aI17
ag254
asg53
(lp3820
I22
aI30
ag53
assg264
(dp3821
g131
(lp3822
I31
aI6
ag264
asg71
(lp3823
I38
aI26
ag264
asg45
(lp3824
I28
aI18
ag264
asg21
(lp3825
I13
aI21
ag21
asg47
(lp3826
I17
aI24
ag47
asg122
(lp3827
I31
aI38
ag122
asg35
(lp3828
I14
aI24
ag35
asg39
(lp3829
I31
aI28
ag264
asg64
(lp3830
I17
aI16
ag264
assg274
(dp3831
g83
(lp3832
I24
aI19
ag274
asg13
(lp3833
I3
aI41
ag13
asg17
(lp3834
I14
aI31
ag17
asg122
(lp3835
I10
aI27
ag122
asg30
(lp3836
I16
aI23
ag30
asg32
(lp3837
I10
aI17
ag32
asg741
(lp3838
I7
aI27
ag741
asg37
(lp3839
I10
aI27
ag37
assg284
(dp3840
g21
(lp3841
I27
aI21
ag284
asg47
(lp3842
I24
aI40
ag47
asg111
(lp3843
I16
aI26
ag111
asg122
(lp3844
I6
aI28
ag122
asg88
(lp3845
I9
aI17
ag88
asg37
(lp3846
I13
aI20
ag37
asg39
(lp3847
I6
aI9
ag39
asg55
(lp3848
I20
aI37
ag55
assg294
(dp3849
g45
(lp3850
I23
aI38
ag45
asg21
(lp3851
I22
aI30
ag21
asg47
(lp3852
I17
aI30
ag47
asg17
(lp3853
I23
aI26
ag17
asg122
(lp3854
I13
aI34
ag122
asg39
(lp3855
I24
aI23
ag294
asg74
(lp3856
I20
aI27
ag74
asg64
(lp3857
I19
aI17
ag294
assg224
(dp3858
g59
(lp3859
I16
aI13
ag224
asg131
(lp3860
I16
aI14
ag224
asg86
(lp3861
I24
aI10
ag224
asg122
(lp3862
I10
aI13
ag122
asg32
(lp3863
I27
aI10
ag224
asg39
(lp3864
I10
aI13
ag39
asg74
(lp3865
I27
aI12
ag224
asg55
(lp3866
I24
aI34
ag55
assg315
(dp3867
g83
(lp3868
I27
aI23
ag315
asg71
(lp3869
I23
aI20
ag315
asg11
(lp3870
I23
aI20
ag315
asg86
(lp3871
I17
aI13
ag315
asg741
(lp3872
I28
aI16
ag315
asg19
(lp3873
I30
aI27
ag315
asg25
(lp3874
I20
aI13
ag315
asg94
(lp3875
I17
aI22
ag94
assg325
(dp3876
g131
(lp3877
I27
aI6
ag325
asg11
(lp3878
I24
aI21
ag325
asg13
(lp3879
I13
aI28
ag13
asg17
(lp3880
I38
aI10
ag325
asg49
(lp3881
I17
aI31
ag49
asg35
(lp3882
I20
aI16
ag325
asg25
(lp3883
I16
aI19
ag25
asg53
(lp3884
I3
aI24
ag53
assg335
(dp3885
g49
(lp3886
I24
aI24
ag49
asg13
(lp3887
I32
aI7
ag335
asg17
(lp3888
I27
aI19
ag335
asg11
(lp3889
I27
aI13
ag335
asg19
(lp3890
I45
aI31
ag335
asg35
(lp3891
I13
aI6
ag335
asg23
(lp3892
I27
aI13
ag335
asg39
(lp3893
I31
aI34
ag39
asg25
(lp3894
I45
aI3
ag335
asg64
(lp3895
I3
aI26
ag64
assg345
(dp3896
g59
(lp3897
I31
aI13
ag345
asg83
(lp3898
I38
aI10
ag345
asg21
(lp3899
I7
aI31
ag21
asg47
(lp3900
I3
aI27
ag47
asg111
(lp3901
I24
aI21
ag345
asg122
(lp3902
I13
aI20
ag122
asg88
(lp3903
I24
aI35
ag88
asg39
(lp3904
I13
aI16
ag39
asssg2
(g4
S'\xdd\x07\x00\x00\x00\x00\x00\x00'
tRp3905
(dp3906
g7
(dp3907
g21
(lp3908
I10
aI35
ag21
asg131
(lp3909
I48
aI30
ag7
asg86
(lp3910
I27
aI31
ag86
asg17
(lp3911
I14
aI13
ag7
asg19
(lp3912
I31
aI44
ag19
asg13
(lp3913
I23
aI20
ag7
asg74
(lp3914
I34
aI27
ag7
asg92
(lp3915
I34
aI27
ag7
assg27
(dp3916
g21
(lp3917
I16
aI20
ag21
asg47
(lp3918
I27
aI23
ag27
asg122
(lp3919
I22
aI20
ag27
asg30
(lp3920
I24
aI20
ag27
asg32
(lp3921
I7
aI20
ag32
asg39
(lp3922
I23
aI26
ag39
asg25
(lp3923
I21
aI23
ag25
asg55
(lp3924
I20
aI16
ag27
assg42
(dp3925
g9
(lp3926
I17
aI13
ag42
asg49
(lp3927
I30
aI15
ag42
asg47
(lp3928
I34
aI10
ag42
asg30
(lp3929
I24
aI20
ag42
asg53
(lp3930
I10
aI23
ag53
asg32
(lp3931
I30
aI20
ag42
asg35
(lp3932
I7
aI12
ag35
asg15
(lp3933
I27
aI6
ag42
asg64
(lp3934
I38
aI0
ag42
assg57
(dp3935
g9
(lp3936
I13
aI17
ag9
asg49
(lp3937
I31
aI24
ag57
asg74
(lp3938
I27
aI26
ag57
asg30
(lp3939
I23
aI30
ag30
asg32
(lp3940
I28
aI30
ag32
asg35
(lp3941
I10
aI33
ag35
asg21
(lp3942
I20
aI21
ag21
asg15
(lp3943
I31
aI23
ag57
assg69
(dp3944
g71
(lp3945
I34
aI24
ag69
asg45
(lp3946
I31
aI30
ag69
asg13
(lp3947
I40
aI32
ag69
asg122
(lp3948
I24
aI27
ag122
asg19
(lp3949
I40
aI10
ag69
asg39
(lp3950
I16
aI18
ag39
asg15
(lp3951
I21
aI24
ag15
asg64
(lp3952
I20
aI23
ag64
assg81
(dp3953
g71
(lp3954
I42
aI14
ag81
asg86
(lp3955
I41
aI20
ag81
asg30
(lp3956
I13
aI6
ag81
asg32
(lp3957
I49
aI9
ag81
asg19
(lp3958
I34
aI30
ag81
asg37
(lp3959
I42
aI28
ag81
asg39
(lp3960
I34
aI17
ag81
asg92
(lp3961
I20
aI10
ag81
asg55
(lp3962
I10
aI27
ag55
assg96
(dp3963
g9
(lp3964
I26
aI20
ag96
asg11
(lp3965
I3
aI23
ag11
asg15
(lp3966
I18
aI17
ag96
asg111
(lp3967
I37
aI27
ag96
asg30
(lp3968
I30
aI27
ag96
asg86
(lp3969
I24
aI13
ag96
asg25
(lp3970
I27
aI20
ag96
asg92
(lp3971
I6
aI19
ag92
assg106
(dp3972
g59
(lp3973
I27
aI17
ag106
asg131
(lp3974
I52
aI20
ag106
asg83
(lp3975
I51
aI28
ag106
asg111
(lp3976
I37
aI21
ag106
asg30
(lp3977
I26
aI16
ag106
asg35
(lp3978
I8
aI43
ag35
asg39
(lp3979
I49
aI27
ag106
asg74
(lp3980
I45
aI21
ag106
asg94
(lp3981
I35
aI19
ag106
asg55
(lp3982
I24
aI17
ag106
assg117
(dp3983
g71
(lp3984
I29
aI26
ag117
asg86
(lp3985
I14
aI6
ag117
asg122
(lp3986
I20
aI17
ag117
asg30
(lp3987
I7
aI41
ag30
asg32
(lp3988
I19
aI3
ag117
asg741
(lp3989
I30
aI9
ag117
asg19
(lp3990
I17
aI19
ag19
asg92
(lp3991
I22
aI20
ag117
assg129
(dp3992
g131
(lp3993
I21
aI36
ag131
asg35
(lp3994
I0
aI23
ag35
asg71
(lp3995
I23
aI7
ag129
asg45
(lp3996
I21
aI24
ag45
asg111
(lp3997
I24
aI20
ag129
asg19
(lp3998
I27
aI13
ag129
asg88
(lp3999
I23
aI41
ag88
asg74
(lp4000
I20
aI6
ag129
assg142
(dp4001
g59
(lp4002
I31
aI56
ag59
asg131
(lp4003
I20
aI49
ag131
asg83
(lp4004
I19
aI23
ag83
asg74
(lp4005
I14
aI24
ag74
asg88
(lp4006
I14
aI34
ag88
asg92
(lp4007
I21
aI18
ag142
asg94
(lp4008
I19
aI9
ag142
asg55
(lp4009
I27
aI17
ag142
assg154
(dp4010
g59
(lp4011
I17
aI26
ag59
asg94
(lp4012
I27
aI29
ag94
asg32
(lp4013
I38
aI13
ag154
asg741
(lp4014
I16
aI10
ag154
asg37
(lp4015
I27
aI30
ag37
asg23
(lp4016
I34
aI37
ag23
asg53
(lp4017
I17
aI31
ag53
asg55
(lp4018
I20
aI17
ag154
assg164
(dp4019
g11
(lp4020
I38
aI17
ag164
asg21
(lp4021
I31
aI13
ag164
asg47
(lp4022
I23
aI17
ag164
asg15
(lp4023
I42
aI17
ag164
asg45
(lp4024
I49
aI17
ag164
asg23
(lp4025
I31
aI7
ag164
asg25
(lp4026
I35
aI17
ag164
asg53
(lp4027
I23
aI20
ag164
assg174
(dp4028
g131
(lp4029
I22
aI24
ag131
asg71
(lp4030
I27
aI23
ag174
asg49
(lp4031
I31
aI7
ag174
asg111
(lp4032
I31
aI24
ag174
asg19
(lp4033
I36
aI37
ag19
asg88
(lp4034
I48
aI51
ag88
asg74
(lp4035
I31
aI16
ag174
asg64
(lp4036
I36
aI31
ag174
assg184
(dp4037
g9
(lp4038
I30
aI27
ag184
asg11
(lp4039
I27
aI17
ag184
asg92
(lp4040
I55
aI31
ag184
asg32
(lp4041
I13
aI10
ag184
asg25
(lp4042
I34
aI20
ag184
asg88
(lp4043
I34
aI31
ag184
asg86
(lp4044
I27
aI26
ag184
asg37
(lp4045
I43
aI22
ag184
asg15
(lp4046
I23
aI3
ag184
assg194
(dp4047
g83
(lp4048
I20
aI13
ag194
asg9
(lp4049
I23
aI15
ag194
asg49
(lp4050
I27
aI9
ag194
asg71
(lp4051
I41
aI20
ag194
asg94
(lp4052
I45
aI17
ag194
asg23
(lp4053
I10
aI17
ag23
asg15
(lp4054
I27
aI24
ag194
asg53
(lp4055
I23
aI17
ag194
assg204
(dp4056
g9
(lp4057
I18
aI26
ag9
asg45
(lp4058
I45
aI28
ag204
asg71
(lp4059
I31
aI30
ag204
asg17
(lp4060
I19
aI21
ag17
asg122
(lp4061
I24
aI21
ag204
asg19
(lp4062
I28
aI33
ag19
asg39
(lp4063
I23
aI20
ag204
asg64
(lp4064
I27
aI21
ag204
assg214
(dp4065
g131
(lp4066
I20
aI31
ag131
asg9
(lp4067
I14
aI16
ag9
asg11
(lp4068
I22
aI19
ag214
asg21
(lp4069
I13
aI31
ag21
asg47
(lp4070
I41
aI28
ag214
asg23
(lp4071
I10
aI13
ag23
asg25
(lp4072
I27
aI6
ag214
asg53
(lp4073
I14
aI33
ag53
assg224
(dp4074
g83
(lp4075
I9
aI16
ag83
asg11
(lp4076
I28
aI34
ag11
asg13
(lp4077
I23
aI40
ag13
asg17
(lp4078
I37
aI27
ag224
asg122
(lp4079
I30
aI20
ag224
asg86
(lp4080
I20
aI7
ag224
asg39
(lp4081
I19
aI16
ag224
asg25
(lp4082
I23
aI10
ag224
assg234
(dp4083
g83
(lp4084
I21
aI28
ag83
asg9
(lp4085
I27
aI16
ag234
asg13
(lp4086
I42
aI21
ag234
asg94
(lp4087
I34
aI20
ag234
asg35
(lp4088
I9
aI14
ag35
asg23
(lp4089
I27
aI24
ag234
asg15
(lp4090
I23
aI13
ag234
asg53
(lp4091
I11
aI35
ag53
assg244
(dp4092
g11
(lp4093
I10
aI23
ag11
asg92
(lp4094
I11
aI27
ag92
asg17
(lp4095
I17
aI31
ag17
asg122
(lp4096
I17
aI6
ag244
asg13
(lp4097
I31
aI38
ag13
asg39
(lp4098
I24
aI18
ag244
asg25
(lp4099
I37
aI24
ag244
asg94
(lp4100
I28
aI32
ag94
assg830
(dp4101
g88
(lp4102
I13
aI37
ag88
asg83
(lp4103
I30
aI24
ag830
asg49
(lp4104
I13
aI38
ag49
asg111
(lp4105
I23
aI28
ag111
asg30
(lp4106
I31
aI34
ag30
asg35
(lp4107
I20
aI23
ag35
asg37
(lp4108
I24
aI27
ag37
asg94
(lp4109
I6
aI13
ag94
assg254
(dp4110
g131
(lp4111
I13
aI27
ag131
asg71
(lp4112
I26
aI26
ag71
asg13
(lp4113
I20
aI27
ag13
asg47
(lp4114
I22
aI21
ag254
asg17
(lp4115
I22
aI9
ag254
asg86
(lp4116
I31
aI13
ag254
asg74
(lp4117
I38
aI20
ag254
asg53
(lp4118
I20
aI23
ag53
asg92
(lp4119
I31
aI38
ag92
assg264
(dp4120
g59
(lp4121
I10
aI45
ag59
asg131
(lp4122
I27
aI33
ag131
asg45
(lp4123
I23
aI24
ag45
asg13
(lp4124
I45
aI41
ag264
asg17
(lp4125
I20
aI27
ag17
asg64
(lp4126
I17
aI24
ag64
asg53
(lp4127
I6
aI27
ag53
asg55
(lp4128
I30
aI24
ag264
assg274
(dp4129
g59
(lp4130
I2
aI28
ag59
asg83
(lp4131
I16
aI20
ag83
asg741
(lp4132
I27
aI20
ag274
asg37
(lp4133
I3
aI37
ag37
asg23
(lp4134
I14
aI27
ag23
asg25
(lp4135
I20
aI27
ag25
asg53
(lp4136
I10
aI42
ag53
asg55
(lp4137
I6
aI24
ag55
assg284
(dp4138
g45
(lp4139
I17
aI16
ag284
asg86
(lp4140
I23
aI17
ag284
asg111
(lp4141
I24
aI7
ag284
asg741
(lp4142
I17
aI16
ag284
asg88
(lp4143
I28
aI35
ag88
asg37
(lp4144
I7
aI23
ag37
asg64
(lp4145
I31
aI7
ag284
asg55
(lp4146
I38
aI41
ag55
assg294
(dp4147
g59
(lp4148
I16
aI26
ag59
asg9
(lp4149
I24
aI26
ag9
asg45
(lp4150
I3
aI17
ag45
asg13
(lp4151
I54
aI11
ag294
asg17
(lp4152
I34
aI20
ag294
asg23
(lp4153
I24
aI21
ag294
asg74
(lp4154
I24
aI16
ag294
asg64
(lp4155
I7
aI15
ag64
asg55
(lp4156
I30
aI33
ag55
assg305
(dp4157
g59
(lp4158
I13
aI23
ag59
asg11
(lp4159
I19
aI0
ag305
asg21
(lp4160
I24
aI23
ag305
asg47
(lp4161
I31
aI34
ag47
asg30
(lp4162
I21
aI23
ag30
asg122
(lp4163
I24
aI27
ag122
asg32
(lp4164
I37
aI14
ag305
asg39
(lp4165
I23
aI20
ag305
assg315
(dp4166
g59
(lp4167
I45
aI44
ag315
asg35
(lp4168
I34
aI28
ag315
asg83
(lp4169
I22
aI14
ag315
asg11
(lp4170
I20
aI24
ag11
asg111
(lp4171
I21
aI17
ag315
asg49
(lp4172
I8
aI38
ag49
asg741
(lp4173
I25
aI3
ag315
asg88
(lp4174
I39
aI33
ag315
asg94
(lp4175
I30
aI10
ag315
assg325
(dp4176
g49
(lp4177
I30
aI10
ag325
asg21
(lp4178
I22
aI6
ag325
asg47
(lp4179
I27
aI13
ag325
asg17
(lp4180
I25
aI21
ag325
asg741
(lp4181
I27
aI24
ag325
asg35
(lp4182
I22
aI34
ag35
asg37
(lp4183
I40
aI11
ag325
asg53
(lp4184
I20
aI23
ag53
assg335
(dp4185
g49
(lp4186
I23
aI13
ag335
asg21
(lp4187
I9
aI10
ag21
asg47
(lp4188
I34
aI24
ag335
asg741
(lp4189
I34
aI3
ag335
asg19
(lp4190
I34
aI28
ag335
asg35
(lp4191
I19
aI17
ag335
asg37
(lp4192
I7
aI27
ag37
asg23
(lp4193
I32
aI20
ag335
assg345
(dp4194
g59
(lp4195
I27
aI24
ag345
asg45
(lp4196
I30
aI21
ag345
asg111
(lp4197
I26
aI13
ag345
asg122
(lp4198
I10
aI17
ag122
asg741
(lp4199
I28
aI31
ag741
asg88
(lp4200
I20
aI28
ag88
asg37
(lp4201
I19
aI9
ag345
asg64
(lp4202
I37
aI14
ag345
asss.